
f:/NB-IOT/MTK/MT2625/SDK/Develop/NBIOT_SDK_OCPU/MCU_R04/out/mt2625_evb/nbiot_m2m_demo/BootLoader_BC26NBR01A03_BETA0801.elf:     file format elf32-littlearm


Disassembly of section .isr_vector:

04000000 <Reset_Handler>:
 4000000:	f8df d03c 	ldr.w	sp, [pc, #60]	; 4000040 <ZeroBssLoop+0x10>
 4000004:	b672      	cpsid	i
 4000006:	2000      	movs	r0, #0
 4000008:	2103      	movs	r1, #3
 400000a:	4a0e      	ldr	r2, [pc, #56]	; (4000044 <ZeroBssLoop+0x14>)
 400000c:	f842 0b04 	str.w	r0, [r2], #4
 4000010:	6011      	str	r1, [r2, #0]
 4000012:	4a0d      	ldr	r2, [pc, #52]	; (4000048 <ZeroBssLoop+0x18>)
 4000014:	4b0d      	ldr	r3, [pc, #52]	; (400004c <ZeroBssLoop+0x1c>)
 4000016:	f000 f80b 	bl	4000030 <ZeroBssLoop>
 400001a:	4a0d      	ldr	r2, [pc, #52]	; (4000050 <ZeroBssLoop+0x20>)
 400001c:	4b0d      	ldr	r3, [pc, #52]	; (4000054 <ZeroBssLoop+0x24>)
 400001e:	f000 f807 	bl	4000030 <ZeroBssLoop>
 4000022:	f002 f975 	bl	4002310 <main>

04000026 <end_bootloader>:
 4000026:	f7ff fffe 	bl	4000026 <end_bootloader>

0400002a <JumpCmd>:
 400002a:	f040 0001 	orr.w	r0, r0, #1
 400002e:	4700      	bx	r0

04000030 <ZeroBssLoop>:
 4000030:	429a      	cmp	r2, r3
 4000032:	bf3e      	ittt	cc
 4000034:	2000      	movcc	r0, #0
 4000036:	f842 0b04 	strcc.w	r0, [r2], #4
 400003a:	f7ff bff9 	bcc.w	4000030 <ZeroBssLoop>
 400003e:	4770      	bx	lr
 4000040:	04010000 	streq	r0, [r1], #-0
 4000044:	e0180000 	ands	r0, r8, r0
 4000048:	00000000 	andeq	r0, r0, r0
 400004c:	000006c4 	andeq	r0, r0, r4, asr #13
 4000050:	04009cf0 	streq	r9, [r0], #-3312	; 0xcf0
 4000054:	04009ea4 	streq	r9, [r0], #-3748	; 0xea4

04000058 <g_pfnVectors>:
 4000058:	04010000 	streq	r0, [r1], #-0
 400005c:	04000001 	streq	r0, [r0], #-1
	...

04000100 <g_rom_parameter>:
 4000100:	53504f52 	cmppl	r0, #328	; 0x148
 4000104:	000007d0 	ldrdeq	r0, [r0], -r0	; <UNPREDICTABLE>
 4000108:	45504f52 	ldrbmi	r4, [r0, #-3922]	; 0xf52
	...

Disassembly of section .text:

04000200 <__aeabi_frsub>:
 4000200:	f080 4000 	eor.w	r0, r0, #2147483648	; 0x80000000
 4000204:	e002      	b.n	400020c <__addsf3>
 4000206:	bf00      	nop

04000208 <__aeabi_fsub>:
 4000208:	f081 4100 	eor.w	r1, r1, #2147483648	; 0x80000000

0400020c <__addsf3>:
 400020c:	0042      	lsls	r2, r0, #1
 400020e:	bf1f      	itttt	ne
 4000210:	ea5f 0341 	movsne.w	r3, r1, lsl #1
 4000214:	ea92 0f03 	teqne	r2, r3
 4000218:	ea7f 6c22 	mvnsne.w	ip, r2, asr #24
 400021c:	ea7f 6c23 	mvnsne.w	ip, r3, asr #24
 4000220:	d06a      	beq.n	40002f8 <__addsf3+0xec>
 4000222:	ea4f 6212 	mov.w	r2, r2, lsr #24
 4000226:	ebd2 6313 	rsbs	r3, r2, r3, lsr #24
 400022a:	bfc1      	itttt	gt
 400022c:	18d2      	addgt	r2, r2, r3
 400022e:	4041      	eorgt	r1, r0
 4000230:	4048      	eorgt	r0, r1
 4000232:	4041      	eorgt	r1, r0
 4000234:	bfb8      	it	lt
 4000236:	425b      	neglt	r3, r3
 4000238:	2b19      	cmp	r3, #25
 400023a:	bf88      	it	hi
 400023c:	4770      	bxhi	lr
 400023e:	f010 4f00 	tst.w	r0, #2147483648	; 0x80000000
 4000242:	f440 0000 	orr.w	r0, r0, #8388608	; 0x800000
 4000246:	f020 407f 	bic.w	r0, r0, #4278190080	; 0xff000000
 400024a:	bf18      	it	ne
 400024c:	4240      	negne	r0, r0
 400024e:	f011 4f00 	tst.w	r1, #2147483648	; 0x80000000
 4000252:	f441 0100 	orr.w	r1, r1, #8388608	; 0x800000
 4000256:	f021 417f 	bic.w	r1, r1, #4278190080	; 0xff000000
 400025a:	bf18      	it	ne
 400025c:	4249      	negne	r1, r1
 400025e:	ea92 0f03 	teq	r2, r3
 4000262:	d03f      	beq.n	40002e4 <__addsf3+0xd8>
 4000264:	f1a2 0201 	sub.w	r2, r2, #1
 4000268:	fa41 fc03 	asr.w	ip, r1, r3
 400026c:	eb10 000c 	adds.w	r0, r0, ip
 4000270:	f1c3 0320 	rsb	r3, r3, #32
 4000274:	fa01 f103 	lsl.w	r1, r1, r3
 4000278:	f000 4300 	and.w	r3, r0, #2147483648	; 0x80000000
 400027c:	d502      	bpl.n	4000284 <__addsf3+0x78>
 400027e:	4249      	negs	r1, r1
 4000280:	eb60 0040 	sbc.w	r0, r0, r0, lsl #1
 4000284:	f5b0 0f00 	cmp.w	r0, #8388608	; 0x800000
 4000288:	d313      	bcc.n	40002b2 <__addsf3+0xa6>
 400028a:	f1b0 7f80 	cmp.w	r0, #16777216	; 0x1000000
 400028e:	d306      	bcc.n	400029e <__addsf3+0x92>
 4000290:	0840      	lsrs	r0, r0, #1
 4000292:	ea4f 0131 	mov.w	r1, r1, rrx
 4000296:	f102 0201 	add.w	r2, r2, #1
 400029a:	2afe      	cmp	r2, #254	; 0xfe
 400029c:	d251      	bcs.n	4000342 <__addsf3+0x136>
 400029e:	f1b1 4f00 	cmp.w	r1, #2147483648	; 0x80000000
 40002a2:	eb40 50c2 	adc.w	r0, r0, r2, lsl #23
 40002a6:	bf08      	it	eq
 40002a8:	f020 0001 	biceq.w	r0, r0, #1
 40002ac:	ea40 0003 	orr.w	r0, r0, r3
 40002b0:	4770      	bx	lr
 40002b2:	0049      	lsls	r1, r1, #1
 40002b4:	eb40 0000 	adc.w	r0, r0, r0
 40002b8:	f410 0f00 	tst.w	r0, #8388608	; 0x800000
 40002bc:	f1a2 0201 	sub.w	r2, r2, #1
 40002c0:	d1ed      	bne.n	400029e <__addsf3+0x92>
 40002c2:	fab0 fc80 	clz	ip, r0
 40002c6:	f1ac 0c08 	sub.w	ip, ip, #8
 40002ca:	ebb2 020c 	subs.w	r2, r2, ip
 40002ce:	fa00 f00c 	lsl.w	r0, r0, ip
 40002d2:	bfaa      	itet	ge
 40002d4:	eb00 50c2 	addge.w	r0, r0, r2, lsl #23
 40002d8:	4252      	neglt	r2, r2
 40002da:	4318      	orrge	r0, r3
 40002dc:	bfbc      	itt	lt
 40002de:	40d0      	lsrlt	r0, r2
 40002e0:	4318      	orrlt	r0, r3
 40002e2:	4770      	bx	lr
 40002e4:	f092 0f00 	teq	r2, #0
 40002e8:	f481 0100 	eor.w	r1, r1, #8388608	; 0x800000
 40002ec:	bf06      	itte	eq
 40002ee:	f480 0000 	eoreq.w	r0, r0, #8388608	; 0x800000
 40002f2:	3201      	addeq	r2, #1
 40002f4:	3b01      	subne	r3, #1
 40002f6:	e7b5      	b.n	4000264 <__addsf3+0x58>
 40002f8:	ea4f 0341 	mov.w	r3, r1, lsl #1
 40002fc:	ea7f 6c22 	mvns.w	ip, r2, asr #24
 4000300:	bf18      	it	ne
 4000302:	ea7f 6c23 	mvnsne.w	ip, r3, asr #24
 4000306:	d021      	beq.n	400034c <__addsf3+0x140>
 4000308:	ea92 0f03 	teq	r2, r3
 400030c:	d004      	beq.n	4000318 <__addsf3+0x10c>
 400030e:	f092 0f00 	teq	r2, #0
 4000312:	bf08      	it	eq
 4000314:	4608      	moveq	r0, r1
 4000316:	4770      	bx	lr
 4000318:	ea90 0f01 	teq	r0, r1
 400031c:	bf1c      	itt	ne
 400031e:	2000      	movne	r0, #0
 4000320:	4770      	bxne	lr
 4000322:	f012 4f7f 	tst.w	r2, #4278190080	; 0xff000000
 4000326:	d104      	bne.n	4000332 <__addsf3+0x126>
 4000328:	0040      	lsls	r0, r0, #1
 400032a:	bf28      	it	cs
 400032c:	f040 4000 	orrcs.w	r0, r0, #2147483648	; 0x80000000
 4000330:	4770      	bx	lr
 4000332:	f112 7200 	adds.w	r2, r2, #33554432	; 0x2000000
 4000336:	bf3c      	itt	cc
 4000338:	f500 0000 	addcc.w	r0, r0, #8388608	; 0x800000
 400033c:	4770      	bxcc	lr
 400033e:	f000 4300 	and.w	r3, r0, #2147483648	; 0x80000000
 4000342:	f043 40fe 	orr.w	r0, r3, #2130706432	; 0x7f000000
 4000346:	f440 0000 	orr.w	r0, r0, #8388608	; 0x800000
 400034a:	4770      	bx	lr
 400034c:	ea7f 6222 	mvns.w	r2, r2, asr #24
 4000350:	bf16      	itet	ne
 4000352:	4608      	movne	r0, r1
 4000354:	ea7f 6323 	mvnseq.w	r3, r3, asr #24
 4000358:	4601      	movne	r1, r0
 400035a:	0242      	lsls	r2, r0, #9
 400035c:	bf06      	itte	eq
 400035e:	ea5f 2341 	movseq.w	r3, r1, lsl #9
 4000362:	ea90 0f01 	teqeq	r0, r1
 4000366:	f440 0080 	orrne.w	r0, r0, #4194304	; 0x400000
 400036a:	4770      	bx	lr

0400036c <__aeabi_ui2f>:
 400036c:	f04f 0300 	mov.w	r3, #0
 4000370:	e004      	b.n	400037c <__aeabi_i2f+0x8>
 4000372:	bf00      	nop

04000374 <__aeabi_i2f>:
 4000374:	f010 4300 	ands.w	r3, r0, #2147483648	; 0x80000000
 4000378:	bf48      	it	mi
 400037a:	4240      	negmi	r0, r0
 400037c:	ea5f 0c00 	movs.w	ip, r0
 4000380:	bf08      	it	eq
 4000382:	4770      	bxeq	lr
 4000384:	f043 4396 	orr.w	r3, r3, #1258291200	; 0x4b000000
 4000388:	4601      	mov	r1, r0
 400038a:	f04f 0000 	mov.w	r0, #0
 400038e:	e01c      	b.n	40003ca <__aeabi_l2f+0x2a>

04000390 <__aeabi_ul2f>:
 4000390:	ea50 0201 	orrs.w	r2, r0, r1
 4000394:	bf08      	it	eq
 4000396:	4770      	bxeq	lr
 4000398:	f04f 0300 	mov.w	r3, #0
 400039c:	e00a      	b.n	40003b4 <__aeabi_l2f+0x14>
 400039e:	bf00      	nop

040003a0 <__aeabi_l2f>:
 40003a0:	ea50 0201 	orrs.w	r2, r0, r1
 40003a4:	bf08      	it	eq
 40003a6:	4770      	bxeq	lr
 40003a8:	f011 4300 	ands.w	r3, r1, #2147483648	; 0x80000000
 40003ac:	d502      	bpl.n	40003b4 <__aeabi_l2f+0x14>
 40003ae:	4240      	negs	r0, r0
 40003b0:	eb61 0141 	sbc.w	r1, r1, r1, lsl #1
 40003b4:	ea5f 0c01 	movs.w	ip, r1
 40003b8:	bf02      	ittt	eq
 40003ba:	4684      	moveq	ip, r0
 40003bc:	4601      	moveq	r1, r0
 40003be:	2000      	moveq	r0, #0
 40003c0:	f043 43b6 	orr.w	r3, r3, #1526726656	; 0x5b000000
 40003c4:	bf08      	it	eq
 40003c6:	f1a3 5380 	subeq.w	r3, r3, #268435456	; 0x10000000
 40003ca:	f5a3 0300 	sub.w	r3, r3, #8388608	; 0x800000
 40003ce:	fabc f28c 	clz	r2, ip
 40003d2:	3a08      	subs	r2, #8
 40003d4:	eba3 53c2 	sub.w	r3, r3, r2, lsl #23
 40003d8:	db10      	blt.n	40003fc <__aeabi_l2f+0x5c>
 40003da:	fa01 fc02 	lsl.w	ip, r1, r2
 40003de:	4463      	add	r3, ip
 40003e0:	fa00 fc02 	lsl.w	ip, r0, r2
 40003e4:	f1c2 0220 	rsb	r2, r2, #32
 40003e8:	f1bc 4f00 	cmp.w	ip, #2147483648	; 0x80000000
 40003ec:	fa20 f202 	lsr.w	r2, r0, r2
 40003f0:	eb43 0002 	adc.w	r0, r3, r2
 40003f4:	bf08      	it	eq
 40003f6:	f020 0001 	biceq.w	r0, r0, #1
 40003fa:	4770      	bx	lr
 40003fc:	f102 0220 	add.w	r2, r2, #32
 4000400:	fa01 fc02 	lsl.w	ip, r1, r2
 4000404:	f1c2 0220 	rsb	r2, r2, #32
 4000408:	ea50 004c 	orrs.w	r0, r0, ip, lsl #1
 400040c:	fa21 f202 	lsr.w	r2, r1, r2
 4000410:	eb43 0002 	adc.w	r0, r3, r2
 4000414:	bf08      	it	eq
 4000416:	ea20 70dc 	biceq.w	r0, r0, ip, lsr #31
 400041a:	4770      	bx	lr

0400041c <hal_cache_is_cacheable>:
 400041c:	b510      	push	{r4, lr}
 400041e:	4b11      	ldr	r3, [pc, #68]	; (4000464 <hal_cache_is_cacheable+0x48>)
 4000420:	681b      	ldr	r3, [r3, #0]
 4000422:	f013 0301 	ands.w	r3, r3, #1
 4000426:	d01a      	beq.n	400045e <hal_cache_is_cacheable+0x42>
 4000428:	2300      	movs	r3, #0
 400042a:	4a0e      	ldr	r2, [pc, #56]	; (4000464 <hal_cache_is_cacheable+0x48>)
 400042c:	2101      	movs	r1, #1
 400042e:	6ad2      	ldr	r2, [r2, #44]	; 0x2c
 4000430:	fa01 f403 	lsl.w	r4, r1, r3
 4000434:	4214      	tst	r4, r2
 4000436:	d00c      	beq.n	4000452 <hal_cache_is_cacheable+0x36>
 4000438:	009a      	lsls	r2, r3, #2
 400043a:	f102 4260 	add.w	r2, r2, #3758096384	; 0xe0000000
 400043e:	f502 12c8 	add.w	r2, r2, #1638400	; 0x190000
 4000442:	6814      	ldr	r4, [r2, #0]
 4000444:	f424 7480 	bic.w	r4, r4, #256	; 0x100
 4000448:	42a0      	cmp	r0, r4
 400044a:	d302      	bcc.n	4000452 <hal_cache_is_cacheable+0x36>
 400044c:	6c12      	ldr	r2, [r2, #64]	; 0x40
 400044e:	4290      	cmp	r0, r2
 4000450:	d303      	bcc.n	400045a <hal_cache_is_cacheable+0x3e>
 4000452:	3301      	adds	r3, #1
 4000454:	2b10      	cmp	r3, #16
 4000456:	d1e8      	bne.n	400042a <hal_cache_is_cacheable+0xe>
 4000458:	e001      	b.n	400045e <hal_cache_is_cacheable+0x42>
 400045a:	4608      	mov	r0, r1
 400045c:	bd10      	pop	{r4, pc}
 400045e:	2000      	movs	r0, #0
 4000460:	bd10      	pop	{r4, pc}
 4000462:	bf00      	nop
 4000464:	e0180000 	ands	r0, r8, r0

04000468 <hal_nvic_register_isr_handler>:
 4000468:	b570      	push	{r4, r5, r6, lr}
 400046a:	b2c6      	uxtb	r6, r0
 400046c:	2e4c      	cmp	r6, #76	; 0x4c
 400046e:	4604      	mov	r4, r0
 4000470:	460d      	mov	r5, r1
 4000472:	d813      	bhi.n	400049c <hal_nvic_register_isr_handler+0x34>
 4000474:	b191      	cbz	r1, 400049c <hal_nvic_register_isr_handler+0x34>
 4000476:	f008 fa97 	bl	40089a8 <save_and_set_interrupt_mask>
 400047a:	f006 061f 	and.w	r6, r6, #31
 400047e:	2301      	movs	r3, #1
 4000480:	0962      	lsrs	r2, r4, #5
 4000482:	fa03 f606 	lsl.w	r6, r3, r6
 4000486:	3260      	adds	r2, #96	; 0x60
 4000488:	4b06      	ldr	r3, [pc, #24]	; (40004a4 <hal_nvic_register_isr_handler+0x3c>)
 400048a:	f843 6022 	str.w	r6, [r3, r2, lsl #2]
 400048e:	4b06      	ldr	r3, [pc, #24]	; (40004a8 <hal_nvic_register_isr_handler+0x40>)
 4000490:	f843 5024 	str.w	r5, [r3, r4, lsl #2]
 4000494:	f008 fa8c 	bl	40089b0 <restore_interrupt_mask>
 4000498:	2000      	movs	r0, #0
 400049a:	e000      	b.n	400049e <hal_nvic_register_isr_handler+0x36>
 400049c:	20fe      	movs	r0, #254	; 0xfe
 400049e:	b240      	sxtb	r0, r0
 40004a0:	bd70      	pop	{r4, r5, r6, pc}
 40004a2:	bf00      	nop
 40004a4:	e000e100 	and	lr, r0, r0, lsl #2
 40004a8:	00000000 	andeq	r0, r0, r0

040004ac <SF_DAL_IOCtrl>:
 40004ac:	b510      	push	{r4, lr}
 40004ae:	460c      	mov	r4, r1
 40004b0:	b921      	cbnz	r1, 40004bc <SF_DAL_IOCtrl+0x10>
 40004b2:	f8d0 30d4 	ldr.w	r3, [r0, #212]	; 0xd4
 40004b6:	4798      	blx	r3
 40004b8:	4620      	mov	r0, r4
 40004ba:	bd10      	pop	{r4, pc}
 40004bc:	2901      	cmp	r1, #1
 40004be:	d10d      	bne.n	40004dc <SF_DAL_IOCtrl+0x30>
 40004c0:	f890 20c1 	ldrb.w	r2, [r0, #193]	; 0xc1
 40004c4:	2ac2      	cmp	r2, #194	; 0xc2
 40004c6:	d107      	bne.n	40004d8 <SF_DAL_IOCtrl+0x2c>
 40004c8:	6943      	ldr	r3, [r0, #20]
 40004ca:	681b      	ldr	r3, [r3, #0]
 40004cc:	f5b3 2f80 	cmp.w	r3, #262144	; 0x40000
 40004d0:	bf14      	ite	ne
 40004d2:	2000      	movne	r0, #0
 40004d4:	20c2      	moveq	r0, #194	; 0xc2
 40004d6:	bd10      	pop	{r4, pc}
 40004d8:	2000      	movs	r0, #0
 40004da:	bd10      	pop	{r4, pc}
 40004dc:	e7fe      	b.n	40004dc <SF_DAL_IOCtrl+0x30>
	...

040004e0 <SF_DAL_Init_MXIC>:
 40004e0:	b530      	push	{r4, r5, lr}
 40004e2:	f8d1 30ac 	ldr.w	r3, [r1, #172]	; 0xac
 40004e6:	2202      	movs	r2, #2
 40004e8:	705a      	strb	r2, [r3, #1]
 40004ea:	2208      	movs	r2, #8
 40004ec:	709a      	strb	r2, [r3, #2]
 40004ee:	2204      	movs	r2, #4
 40004f0:	70da      	strb	r2, [r3, #3]
 40004f2:	223c      	movs	r2, #60	; 0x3c
 40004f4:	711a      	strb	r2, [r3, #4]
 40004f6:	2280      	movs	r2, #128	; 0x80
 40004f8:	715a      	strb	r2, [r3, #5]
 40004fa:	2001      	movs	r0, #1
 40004fc:	2260      	movs	r2, #96	; 0x60
 40004fe:	71da      	strb	r2, [r3, #7]
 4000500:	7018      	strb	r0, [r3, #0]
 4000502:	f8d1 40b0 	ldr.w	r4, [r1, #176]	; 0xb0
 4000506:	222b      	movs	r2, #43	; 0x2b
 4000508:	73e2      	strb	r2, [r4, #15]
 400050a:	f8d1 40b0 	ldr.w	r4, [r1, #176]	; 0xb0
 400050e:	7362      	strb	r2, [r4, #13]
 4000510:	f8d1 40b0 	ldr.w	r4, [r1, #176]	; 0xb0
 4000514:	252f      	movs	r5, #47	; 0x2f
 4000516:	73a5      	strb	r5, [r4, #14]
 4000518:	f8d1 40b0 	ldr.w	r4, [r1, #176]	; 0xb0
 400051c:	2505      	movs	r5, #5
 400051e:	72e5      	strb	r5, [r4, #11]
 4000520:	f8d1 40b0 	ldr.w	r4, [r1, #176]	; 0xb0
 4000524:	7320      	strb	r0, [r4, #12]
 4000526:	f8d1 00b0 	ldr.w	r0, [r1, #176]	; 0xb0
 400052a:	7442      	strb	r2, [r0, #17]
 400052c:	2216      	movs	r2, #22
 400052e:	f881 20c0 	strb.w	r2, [r1, #192]	; 0xc0
 4000532:	f8b1 20c2 	ldrh.w	r2, [r1, #194]	; 0xc2
 4000536:	f5b2 5fc1 	cmp.w	r2, #6176	; 0x1820
 400053a:	d107      	bne.n	400054c <SF_DAL_Init_MXIC+0x6c>
 400053c:	f8d1 20b0 	ldr.w	r2, [r1, #176]	; 0xb0
 4000540:	2075      	movs	r0, #117	; 0x75
 4000542:	7090      	strb	r0, [r2, #2]
 4000544:	f8d1 20b0 	ldr.w	r2, [r1, #176]	; 0xb0
 4000548:	207a      	movs	r0, #122	; 0x7a
 400054a:	70d0      	strb	r0, [r2, #3]
 400054c:	f8b1 20c2 	ldrh.w	r2, [r1, #194]	; 0xc2
 4000550:	f5b2 5fb1 	cmp.w	r2, #5664	; 0x1620
 4000554:	d107      	bne.n	4000566 <SF_DAL_Init_MXIC+0x86>
 4000556:	f8d1 20b0 	ldr.w	r2, [r1, #176]	; 0xb0
 400055a:	2075      	movs	r0, #117	; 0x75
 400055c:	7090      	strb	r0, [r2, #2]
 400055e:	f8d1 20b0 	ldr.w	r2, [r1, #176]	; 0xb0
 4000562:	207a      	movs	r0, #122	; 0x7a
 4000564:	70d0      	strb	r0, [r2, #3]
 4000566:	4a12      	ldr	r2, [pc, #72]	; (40005b0 <SF_DAL_Init_MXIC+0xd0>)
 4000568:	f8c1 20d4 	str.w	r2, [r1, #212]	; 0xd4
 400056c:	f44f 7200 	mov.w	r2, #512	; 0x200
 4000570:	f8a1 20bc 	strh.w	r2, [r1, #188]	; 0xbc
 4000574:	4a0f      	ldr	r2, [pc, #60]	; (40005b4 <SF_DAL_Init_MXIC+0xd4>)
 4000576:	f8c1 20dc 	str.w	r2, [r1, #220]	; 0xdc
 400057a:	4a0f      	ldr	r2, [pc, #60]	; (40005b8 <SF_DAL_Init_MXIC+0xd8>)
 400057c:	f8c1 20e0 	str.w	r2, [r1, #224]	; 0xe0
 4000580:	f8d1 40b0 	ldr.w	r4, [r1, #176]	; 0xb0
 4000584:	4a0d      	ldr	r2, [pc, #52]	; (40005bc <SF_DAL_Init_MXIC+0xdc>)
 4000586:	f8c1 20d8 	str.w	r2, [r1, #216]	; 0xd8
 400058a:	2000      	movs	r0, #0
 400058c:	2202      	movs	r2, #2
 400058e:	f8a1 00be 	strh.w	r0, [r1, #190]	; 0xbe
 4000592:	7522      	strb	r2, [r4, #20]
 4000594:	f8d1 40b0 	ldr.w	r4, [r1, #176]	; 0xb0
 4000598:	25b1      	movs	r5, #177	; 0xb1
 400059a:	75a5      	strb	r5, [r4, #22]
 400059c:	f8d1 40b0 	ldr.w	r4, [r1, #176]	; 0xb0
 40005a0:	25c1      	movs	r5, #193	; 0xc1
 40005a2:	75e5      	strb	r5, [r4, #23]
 40005a4:	f8d1 10b0 	ldr.w	r1, [r1, #176]	; 0xb0
 40005a8:	242f      	movs	r4, #47	; 0x2f
 40005aa:	760c      	strb	r4, [r1, #24]
 40005ac:	719a      	strb	r2, [r3, #6]
 40005ae:	bd30      	pop	{r4, r5, pc}
 40005b0:	04007e95 	streq	r7, [r0], #-3733	; 0xe95
 40005b4:	04007dc5 	streq	r7, [r0], #-3525	; 0xdc5
 40005b8:	04007ceb 	streq	r7, [r0], #-3307	; 0xceb
 40005bc:	04007cb9 	streq	r7, [r0], #-3257	; 0xcb9

040005c0 <SF_DAL_Init_WINBOND>:
 40005c0:	f8d1 30ac 	ldr.w	r3, [r1, #172]	; 0xac
 40005c4:	2202      	movs	r2, #2
 40005c6:	b510      	push	{r4, lr}
 40005c8:	2001      	movs	r0, #1
 40005ca:	705a      	strb	r2, [r3, #1]
 40005cc:	243c      	movs	r4, #60	; 0x3c
 40005ce:	2280      	movs	r2, #128	; 0x80
 40005d0:	709a      	strb	r2, [r3, #2]
 40005d2:	70da      	strb	r2, [r3, #3]
 40005d4:	7018      	strb	r0, [r3, #0]
 40005d6:	715a      	strb	r2, [r3, #5]
 40005d8:	711c      	strb	r4, [r3, #4]
 40005da:	f8d1 30b0 	ldr.w	r3, [r1, #176]	; 0xb0
 40005de:	229f      	movs	r2, #159	; 0x9f
 40005e0:	729a      	strb	r2, [r3, #10]
 40005e2:	f8d1 20b0 	ldr.w	r2, [r1, #176]	; 0xb0
 40005e6:	2335      	movs	r3, #53	; 0x35
 40005e8:	73d3      	strb	r3, [r2, #15]
 40005ea:	f8d1 20b0 	ldr.w	r2, [r1, #176]	; 0xb0
 40005ee:	7353      	strb	r3, [r2, #13]
 40005f0:	f8d1 30b0 	ldr.w	r3, [r1, #176]	; 0xb0
 40005f4:	2205      	movs	r2, #5
 40005f6:	72da      	strb	r2, [r3, #11]
 40005f8:	f8d1 30b0 	ldr.w	r3, [r1, #176]	; 0xb0
 40005fc:	7318      	strb	r0, [r3, #12]
 40005fe:	f8d1 30b0 	ldr.w	r3, [r1, #176]	; 0xb0
 4000602:	2275      	movs	r2, #117	; 0x75
 4000604:	709a      	strb	r2, [r3, #2]
 4000606:	f8d1 30b0 	ldr.w	r3, [r1, #176]	; 0xb0
 400060a:	227a      	movs	r2, #122	; 0x7a
 400060c:	70da      	strb	r2, [r3, #3]
 400060e:	2316      	movs	r3, #22
 4000610:	f881 30c0 	strb.w	r3, [r1, #192]	; 0xc0
 4000614:	4b02      	ldr	r3, [pc, #8]	; (4000620 <SF_DAL_Init_WINBOND+0x60>)
 4000616:	f8c1 30d4 	str.w	r3, [r1, #212]	; 0xd4
 400061a:	2000      	movs	r0, #0
 400061c:	bd10      	pop	{r4, pc}
 400061e:	bf00      	nop
 4000620:	04007401 	streq	r7, [r0], #-1025	; 0x401

04000624 <SF_DAL_Init_WINBOND_OTP>:
 4000624:	f44f 7340 	mov.w	r3, #768	; 0x300
 4000628:	f8a1 30bc 	strh.w	r3, [r1, #188]	; 0xbc
 400062c:	f44f 7380 	mov.w	r3, #256	; 0x100
 4000630:	f8a1 30be 	strh.w	r3, [r1, #190]	; 0xbe
 4000634:	4b0f      	ldr	r3, [pc, #60]	; (4000674 <SF_DAL_Init_WINBOND_OTP+0x50>)
 4000636:	f8c1 30dc 	str.w	r3, [r1, #220]	; 0xdc
 400063a:	4b0f      	ldr	r3, [pc, #60]	; (4000678 <SF_DAL_Init_WINBOND_OTP+0x54>)
 400063c:	f8c1 30e0 	str.w	r3, [r1, #224]	; 0xe0
 4000640:	4b0e      	ldr	r3, [pc, #56]	; (400067c <SF_DAL_Init_WINBOND_OTP+0x58>)
 4000642:	f8c1 30d8 	str.w	r3, [r1, #216]	; 0xd8
 4000646:	f8d1 30b0 	ldr.w	r3, [r1, #176]	; 0xb0
 400064a:	f8d1 20ac 	ldr.w	r2, [r1, #172]	; 0xac
 400064e:	20ff      	movs	r0, #255	; 0xff
 4000650:	7598      	strb	r0, [r3, #22]
 4000652:	f8d1 30b0 	ldr.w	r3, [r1, #176]	; 0xb0
 4000656:	2038      	movs	r0, #56	; 0x38
 4000658:	75d8      	strb	r0, [r3, #23]
 400065a:	f8d1 30b0 	ldr.w	r3, [r1, #176]	; 0xb0
 400065e:	2042      	movs	r0, #66	; 0x42
 4000660:	7518      	strb	r0, [r3, #20]
 4000662:	f8d1 30b0 	ldr.w	r3, [r1, #176]	; 0xb0
 4000666:	2148      	movs	r1, #72	; 0x48
 4000668:	7559      	strb	r1, [r3, #21]
 400066a:	233c      	movs	r3, #60	; 0x3c
 400066c:	7193      	strb	r3, [r2, #6]
 400066e:	2000      	movs	r0, #0
 4000670:	4770      	bx	lr
 4000672:	bf00      	nop
 4000674:	04007419 	streq	r7, [r0], #-1049	; 0x419
 4000678:	04007b35 	streq	r7, [r0], #-2869	; 0xb35
 400067c:	04007ad3 	streq	r7, [r0], #-2771	; 0xad3

04000680 <SF_DAL_Init_Common>:
 4000680:	b538      	push	{r3, r4, r5, lr}
 4000682:	4b32      	ldr	r3, [pc, #200]	; (400074c <SF_DAL_Init_Common+0xcc>)
 4000684:	6003      	str	r3, [r0, #0]
 4000686:	4b32      	ldr	r3, [pc, #200]	; (4000750 <SF_DAL_Init_Common+0xd0>)
 4000688:	6043      	str	r3, [r0, #4]
 400068a:	4b32      	ldr	r3, [pc, #200]	; (4000754 <SF_DAL_Init_Common+0xd4>)
 400068c:	6083      	str	r3, [r0, #8]
 400068e:	4b32      	ldr	r3, [pc, #200]	; (4000758 <SF_DAL_Init_Common+0xd8>)
 4000690:	60c3      	str	r3, [r0, #12]
 4000692:	4b32      	ldr	r3, [pc, #200]	; (400075c <SF_DAL_Init_Common+0xdc>)
 4000694:	6103      	str	r3, [r0, #16]
 4000696:	4b32      	ldr	r3, [pc, #200]	; (4000760 <SF_DAL_Init_Common+0xe0>)
 4000698:	6143      	str	r3, [r0, #20]
 400069a:	4b32      	ldr	r3, [pc, #200]	; (4000764 <SF_DAL_Init_Common+0xe4>)
 400069c:	6183      	str	r3, [r0, #24]
 400069e:	4b32      	ldr	r3, [pc, #200]	; (4000768 <SF_DAL_Init_Common+0xe8>)
 40006a0:	61c3      	str	r3, [r0, #28]
 40006a2:	4b32      	ldr	r3, [pc, #200]	; (400076c <SF_DAL_Init_Common+0xec>)
 40006a4:	6203      	str	r3, [r0, #32]
 40006a6:	4b32      	ldr	r3, [pc, #200]	; (4000770 <SF_DAL_Init_Common+0xf0>)
 40006a8:	6283      	str	r3, [r0, #40]	; 0x28
 40006aa:	4b32      	ldr	r3, [pc, #200]	; (4000774 <SF_DAL_Init_Common+0xf4>)
 40006ac:	62c3      	str	r3, [r0, #44]	; 0x2c
 40006ae:	2500      	movs	r5, #0
 40006b0:	4b31      	ldr	r3, [pc, #196]	; (4000778 <SF_DAL_Init_Common+0xf8>)
 40006b2:	6245      	str	r5, [r0, #36]	; 0x24
 40006b4:	f8a1 50bc 	strh.w	r5, [r1, #188]	; 0xbc
 40006b8:	6303      	str	r3, [r0, #48]	; 0x30
 40006ba:	4b30      	ldr	r3, [pc, #192]	; (400077c <SF_DAL_Init_Common+0xfc>)
 40006bc:	6345      	str	r5, [r0, #52]	; 0x34
 40006be:	6383      	str	r3, [r0, #56]	; 0x38
 40006c0:	460c      	mov	r4, r1
 40006c2:	f000 f907 	bl	40008d4 <custom_get_NORFLASH_Size>
 40006c6:	f1b0 7f80 	cmp.w	r0, #16777216	; 0x1000000
 40006ca:	bf8c      	ite	hi
 40006cc:	2204      	movhi	r2, #4
 40006ce:	2203      	movls	r2, #3
 40006d0:	f884 20c5 	strb.w	r2, [r4, #197]	; 0xc5
 40006d4:	f8d4 20b0 	ldr.w	r2, [r4, #176]	; 0xb0
 40006d8:	7455      	strb	r5, [r2, #17]
 40006da:	f8d4 20b0 	ldr.w	r2, [r4, #176]	; 0xb0
 40006de:	21af      	movs	r1, #175	; 0xaf
 40006e0:	7291      	strb	r1, [r2, #10]
 40006e2:	f8d4 20b0 	ldr.w	r2, [r4, #176]	; 0xb0
 40006e6:	219f      	movs	r1, #159	; 0x9f
 40006e8:	7251      	strb	r1, [r2, #9]
 40006ea:	f8d4 20b0 	ldr.w	r2, [r4, #176]	; 0xb0
 40006ee:	2102      	movs	r1, #2
 40006f0:	7011      	strb	r1, [r2, #0]
 40006f2:	f8d4 20b0 	ldr.w	r2, [r4, #176]	; 0xb0
 40006f6:	2120      	movs	r1, #32
 40006f8:	7191      	strb	r1, [r2, #6]
 40006fa:	f8d4 20b0 	ldr.w	r2, [r4, #176]	; 0xb0
 40006fe:	2152      	movs	r1, #82	; 0x52
 4000700:	71d1      	strb	r1, [r2, #7]
 4000702:	f8d4 20b0 	ldr.w	r2, [r4, #176]	; 0xb0
 4000706:	21d8      	movs	r1, #216	; 0xd8
 4000708:	7211      	strb	r1, [r2, #8]
 400070a:	f8d4 20b0 	ldr.w	r2, [r4, #176]	; 0xb0
 400070e:	21b0      	movs	r1, #176	; 0xb0
 4000710:	7091      	strb	r1, [r2, #2]
 4000712:	f8d4 20b0 	ldr.w	r2, [r4, #176]	; 0xb0
 4000716:	2130      	movs	r1, #48	; 0x30
 4000718:	70d1      	strb	r1, [r2, #3]
 400071a:	f8d4 20b0 	ldr.w	r2, [r4, #176]	; 0xb0
 400071e:	2106      	movs	r1, #6
 4000720:	7051      	strb	r1, [r2, #1]
 4000722:	f8d4 20b0 	ldr.w	r2, [r4, #176]	; 0xb0
 4000726:	21b9      	movs	r1, #185	; 0xb9
 4000728:	7491      	strb	r1, [r2, #18]
 400072a:	f8d4 20b0 	ldr.w	r2, [r4, #176]	; 0xb0
 400072e:	21ab      	movs	r1, #171	; 0xab
 4000730:	74d1      	strb	r1, [r2, #19]
 4000732:	f8d4 10b0 	ldr.w	r1, [r4, #176]	; 0xb0
 4000736:	2205      	movs	r2, #5
 4000738:	740a      	strb	r2, [r1, #16]
 400073a:	f8a4 50b8 	strh.w	r5, [r4, #184]	; 0xb8
 400073e:	60e5      	str	r5, [r4, #12]
 4000740:	60a5      	str	r5, [r4, #8]
 4000742:	7425      	strb	r5, [r4, #16]
 4000744:	f884 20c0 	strb.w	r2, [r4, #192]	; 0xc0
 4000748:	2000      	movs	r0, #0
 400074a:	bd38      	pop	{r3, r4, r5, pc}
 400074c:	04007831 	streq	r7, [r0], #-2097	; 0x831
 4000750:	040076b1 	streq	r7, [r0], #-1713	; 0x6b1
 4000754:	0400817d 	streq	r8, [r0], #-381	; 0x17d
 4000758:	04007a15 	streq	r7, [r0], #-2581	; 0xa15
 400075c:	040078c5 	streq	r7, [r0], #-2245	; 0x8c5
 4000760:	04007405 	streq	r7, [r0], #-1029	; 0x405
 4000764:	040077b1 	streq	r7, [r0], #-1969	; 0x7b1
 4000768:	040076f5 	streq	r7, [r0], #-1781	; 0x6f5
 400076c:	04007675 	streq	r7, [r0], #-1653	; 0x675
 4000770:	04007541 	streq	r7, [r0], #-1345	; 0x541
 4000774:	0400740f 	streq	r7, [r0], #-1039	; 0x40f
 4000778:	0400740b 	streq	r7, [r0], #-1035	; 0x40b
 400077c:	040004ad 	streq	r0, [r0], #-1197	; 0x4ad

04000780 <SF_DAL_Init_Vendor>:
 4000780:	b570      	push	{r4, r5, r6, lr}
 4000782:	f891 30c1 	ldrb.w	r3, [r1, #193]	; 0xc1
 4000786:	2bef      	cmp	r3, #239	; 0xef
 4000788:	4606      	mov	r6, r0
 400078a:	460c      	mov	r4, r1
 400078c:	d007      	beq.n	400079e <SF_DAL_Init_Vendor+0x1e>
 400078e:	2bf8      	cmp	r3, #248	; 0xf8
 4000790:	d00e      	beq.n	40007b0 <SF_DAL_Init_Vendor+0x30>
 4000792:	2bc2      	cmp	r3, #194	; 0xc2
 4000794:	d110      	bne.n	40007b8 <SF_DAL_Init_Vendor+0x38>
 4000796:	e8bd 4070 	ldmia.w	sp!, {r4, r5, r6, lr}
 400079a:	f7ff bea1 	b.w	40004e0 <SF_DAL_Init_MXIC>
 400079e:	f7ff ff0f 	bl	40005c0 <SF_DAL_Init_WINBOND>
 40007a2:	4621      	mov	r1, r4
 40007a4:	4605      	mov	r5, r0
 40007a6:	4630      	mov	r0, r6
 40007a8:	f7ff ff3c 	bl	4000624 <SF_DAL_Init_WINBOND_OTP>
 40007ac:	4328      	orrs	r0, r5
 40007ae:	bd70      	pop	{r4, r5, r6, pc}
 40007b0:	e8bd 4070 	ldmia.w	sp!, {r4, r5, r6, lr}
 40007b4:	f7ff bf04 	b.w	40005c0 <SF_DAL_Init_WINBOND>
 40007b8:	e7fe      	b.n	40007b8 <SF_DAL_Init_Vendor+0x38>

040007ba <SF_DAL_Init_Driver>:
 40007ba:	b570      	push	{r4, r5, r6, lr}
 40007bc:	460c      	mov	r4, r1
 40007be:	4606      	mov	r6, r0
 40007c0:	b378      	cbz	r0, 4000822 <SF_DAL_Init_Driver+0x68>
 40007c2:	b371      	cbz	r1, 4000822 <SF_DAL_Init_Driver+0x68>
 40007c4:	f8d1 50b0 	ldr.w	r5, [r1, #176]	; 0xb0
 40007c8:	b35d      	cbz	r5, 4000822 <SF_DAL_Init_Driver+0x68>
 40007ca:	f8d1 50ac 	ldr.w	r5, [r1, #172]	; 0xac
 40007ce:	b345      	cbz	r5, 4000822 <SF_DAL_Init_Driver+0x68>
 40007d0:	604a      	str	r2, [r1, #4]
 40007d2:	f8a1 30ba 	strh.w	r3, [r1, #186]	; 0xba
 40007d6:	f7ff ff53 	bl	4000680 <SF_DAL_Init_Common>
 40007da:	f8d4 30b0 	ldr.w	r3, [r4, #176]	; 0xb0
 40007de:	22af      	movs	r2, #175	; 0xaf
 40007e0:	f104 05c1 	add.w	r5, r4, #193	; 0xc1
 40007e4:	729a      	strb	r2, [r3, #10]
 40007e6:	4620      	mov	r0, r4
 40007e8:	4629      	mov	r1, r5
 40007ea:	f006 fef3 	bl	40075d4 <SF_DAL_Dev_ReadID>
 40007ee:	f894 30c1 	ldrb.w	r3, [r4, #193]	; 0xc1
 40007f2:	3b01      	subs	r3, #1
 40007f4:	b2db      	uxtb	r3, r3
 40007f6:	2bfd      	cmp	r3, #253	; 0xfd
 40007f8:	d908      	bls.n	400080c <SF_DAL_Init_Driver+0x52>
 40007fa:	f8d4 30b0 	ldr.w	r3, [r4, #176]	; 0xb0
 40007fe:	229f      	movs	r2, #159	; 0x9f
 4000800:	729a      	strb	r2, [r3, #10]
 4000802:	4620      	mov	r0, r4
 4000804:	4629      	mov	r1, r5
 4000806:	f006 fee5 	bl	40075d4 <SF_DAL_Dev_ReadID>
 400080a:	e004      	b.n	4000816 <SF_DAL_Init_Driver+0x5c>
 400080c:	4628      	mov	r0, r5
 400080e:	f000 f80b 	bl	4000828 <CMEM_CheckValidDeviceID>
 4000812:	2800      	cmp	r0, #0
 4000814:	d0f1      	beq.n	40007fa <SF_DAL_Init_Driver+0x40>
 4000816:	4630      	mov	r0, r6
 4000818:	4621      	mov	r1, r4
 400081a:	e8bd 4070 	ldmia.w	sp!, {r4, r5, r6, lr}
 400081e:	f7ff bfaf 	b.w	4000780 <SF_DAL_Init_Vendor>
 4000822:	f06f 0077 	mvn.w	r0, #119	; 0x77
 4000826:	bd70      	pop	{r4, r5, r6, pc}

04000828 <CMEM_CheckValidDeviceID>:
 4000828:	b570      	push	{r4, r5, r6, lr}
 400082a:	2200      	movs	r2, #0
 400082c:	4b0c      	ldr	r3, [pc, #48]	; (4000860 <CMEM_CheckValidDeviceID+0x38>)
 400082e:	f103 0410 	add.w	r4, r3, #16
 4000832:	4413      	add	r3, r2
 4000834:	4414      	add	r4, r2
 4000836:	7c59      	ldrb	r1, [r3, #17]
 4000838:	2300      	movs	r3, #0
 400083a:	428b      	cmp	r3, r1
 400083c:	da04      	bge.n	4000848 <CMEM_CheckValidDeviceID+0x20>
 400083e:	18e5      	adds	r5, r4, r3
 4000840:	78ae      	ldrb	r6, [r5, #2]
 4000842:	5cc5      	ldrb	r5, [r0, r3]
 4000844:	42ae      	cmp	r6, r5
 4000846:	d002      	beq.n	400084e <CMEM_CheckValidDeviceID+0x26>
 4000848:	428b      	cmp	r3, r1
 400084a:	d102      	bne.n	4000852 <CMEM_CheckValidDeviceID+0x2a>
 400084c:	e006      	b.n	400085c <CMEM_CheckValidDeviceID+0x34>
 400084e:	3301      	adds	r3, #1
 4000850:	e7f3      	b.n	400083a <CMEM_CheckValidDeviceID+0x12>
 4000852:	320a      	adds	r2, #10
 4000854:	2a32      	cmp	r2, #50	; 0x32
 4000856:	d1e9      	bne.n	400082c <CMEM_CheckValidDeviceID+0x4>
 4000858:	2000      	movs	r0, #0
 400085a:	bd70      	pop	{r4, r5, r6, pc}
 400085c:	2001      	movs	r0, #1
 400085e:	bd70      	pop	{r4, r5, r6, pc}
 4000860:	0400560c 	streq	r5, [r0], #-1548	; 0x60c

04000864 <CMEM_Index>:
 4000864:	b573      	push	{r0, r1, r4, r5, r6, lr}
 4000866:	4c15      	ldr	r4, [pc, #84]	; (40008bc <CMEM_Index+0x58>)
 4000868:	f9b4 0000 	ldrsh.w	r0, [r4]
 400086c:	2800      	cmp	r0, #0
 400086e:	da22      	bge.n	40008b6 <CMEM_Index+0x52>
 4000870:	466a      	mov	r2, sp
 4000872:	2000      	movs	r0, #0
 4000874:	f04f 6100 	mov.w	r1, #134217728	; 0x8000000
 4000878:	f007 fc22 	bl	40080c0 <NOR_ReadID>
 400087c:	2200      	movs	r2, #0
 400087e:	4910      	ldr	r1, [pc, #64]	; (40008c0 <CMEM_Index+0x5c>)
 4000880:	230a      	movs	r3, #10
 4000882:	4353      	muls	r3, r2
 4000884:	f101 0010 	add.w	r0, r1, #16
 4000888:	4418      	add	r0, r3
 400088a:	440b      	add	r3, r1
 400088c:	7c59      	ldrb	r1, [r3, #17]
 400088e:	2300      	movs	r3, #0
 4000890:	428b      	cmp	r3, r1
 4000892:	da05      	bge.n	40008a0 <CMEM_Index+0x3c>
 4000894:	18c5      	adds	r5, r0, r3
 4000896:	78ae      	ldrb	r6, [r5, #2]
 4000898:	f83d 5013 	ldrh.w	r5, [sp, r3, lsl #1]
 400089c:	42ae      	cmp	r6, r5
 400089e:	d003      	beq.n	40008a8 <CMEM_Index+0x44>
 40008a0:	428b      	cmp	r3, r1
 40008a2:	d103      	bne.n	40008ac <CMEM_Index+0x48>
 40008a4:	8022      	strh	r2, [r4, #0]
 40008a6:	e004      	b.n	40008b2 <CMEM_Index+0x4e>
 40008a8:	3301      	adds	r3, #1
 40008aa:	e7f1      	b.n	4000890 <CMEM_Index+0x2c>
 40008ac:	3201      	adds	r2, #1
 40008ae:	2a05      	cmp	r2, #5
 40008b0:	d1e5      	bne.n	400087e <CMEM_Index+0x1a>
 40008b2:	f9b4 0000 	ldrsh.w	r0, [r4]
 40008b6:	b002      	add	sp, #8
 40008b8:	bd70      	pop	{r4, r5, r6, pc}
 40008ba:	bf00      	nop
 40008bc:	04009c00 	streq	r9, [r0], #-3072	; 0xc00
 40008c0:	0400560c 	streq	r5, [r0], #-1548	; 0x60c

040008c4 <CMEM_GetIDEntry>:
 40008c4:	4b02      	ldr	r3, [pc, #8]	; (40008d0 <CMEM_GetIDEntry+0xc>)
 40008c6:	220a      	movs	r2, #10
 40008c8:	fb02 3000 	mla	r0, r2, r0, r3
 40008cc:	3010      	adds	r0, #16
 40008ce:	4770      	bx	lr
 40008d0:	0400560c 	streq	r5, [r0], #-1548	; 0x60c

040008d4 <custom_get_NORFLASH_Size>:
 40008d4:	f44f 0080 	mov.w	r0, #4194304	; 0x400000
 40008d8:	4770      	bx	lr

040008da <Custom_NOR_Init>:
 40008da:	f000 b889 	b.w	40009f0 <CMEM_Init_FullDriver>

040008de <CMEM_BlockSize_Internal>:
 40008de:	b570      	push	{r4, r5, r6, lr}
 40008e0:	f020 4078 	bic.w	r0, r0, #4160749568	; 0xf8000000
 40008e4:	2300      	movs	r3, #0
 40008e6:	b29a      	uxth	r2, r3
 40008e8:	1c55      	adds	r5, r2, #1
 40008ea:	eb01 04c5 	add.w	r4, r1, r5, lsl #3
 40008ee:	6866      	ldr	r6, [r4, #4]
 40008f0:	b13e      	cbz	r6, 4000902 <CMEM_BlockSize_Internal+0x24>
 40008f2:	f854 4c08 	ldr.w	r4, [r4, #-8]
 40008f6:	42a0      	cmp	r0, r4
 40008f8:	d307      	bcc.n	400090a <CMEM_BlockSize_Internal+0x2c>
 40008fa:	f851 4035 	ldr.w	r4, [r1, r5, lsl #3]
 40008fe:	42a0      	cmp	r0, r4
 4000900:	d203      	bcs.n	400090a <CMEM_BlockSize_Internal+0x2c>
 4000902:	eb01 01c2 	add.w	r1, r1, r2, lsl #3
 4000906:	6848      	ldr	r0, [r1, #4]
 4000908:	bd70      	pop	{r4, r5, r6, pc}
 400090a:	3301      	adds	r3, #1
 400090c:	e7eb      	b.n	40008e6 <CMEM_BlockSize_Internal+0x8>
	...

04000910 <CMEM_BlockSize>:
 4000910:	4b01      	ldr	r3, [pc, #4]	; (4000918 <CMEM_BlockSize+0x8>)
 4000912:	6819      	ldr	r1, [r3, #0]
 4000914:	f7ff bfe3 	b.w	40008de <CMEM_BlockSize_Internal>
 4000918:	000002e4 	andeq	r0, r0, r4, ror #5

0400091c <NOR_Get_FlashSizeFromBankInfo>:
 400091c:	2300      	movs	r3, #0
 400091e:	f850 2b08 	ldr.w	r2, [r0], #8
 4000922:	b122      	cbz	r2, 400092e <NOR_Get_FlashSizeFromBankInfo+0x12>
 4000924:	f850 1c04 	ldr.w	r1, [r0, #-4]
 4000928:	fb01 3302 	mla	r3, r1, r2, r3
 400092c:	e7f7      	b.n	400091e <NOR_Get_FlashSizeFromBankInfo+0x2>
 400092e:	4618      	mov	r0, r3
 4000930:	4770      	bx	lr

04000932 <CMEM_NOR_Construct_RegionInfo_Internal>:
 4000932:	e92d 43f8 	stmdb	sp!, {r3, r4, r5, r6, r7, r8, r9, lr}
 4000936:	2700      	movs	r7, #0
 4000938:	4606      	mov	r6, r0
 400093a:	4614      	mov	r4, r2
 400093c:	4699      	mov	r9, r3
 400093e:	eb00 0801 	add.w	r8, r0, r1
 4000942:	463d      	mov	r5, r7
 4000944:	4546      	cmp	r6, r8
 4000946:	d21f      	bcs.n	4000988 <CMEM_NOR_Construct_RegionInfo_Internal+0x56>
 4000948:	4630      	mov	r0, r6
 400094a:	4649      	mov	r1, r9
 400094c:	f7ff ffc7 	bl	40008de <CMEM_BlockSize_Internal>
 4000950:	00ea      	lsls	r2, r5, #3
 4000952:	b92f      	cbnz	r7, 4000960 <CMEM_NOR_Construct_RegionInfo_Internal+0x2e>
 4000954:	4422      	add	r2, r4
 4000956:	2301      	movs	r3, #1
 4000958:	f844 0035 	str.w	r0, [r4, r5, lsl #3]
 400095c:	6053      	str	r3, [r2, #4]
 400095e:	e010      	b.n	4000982 <CMEM_NOR_Construct_RegionInfo_Internal+0x50>
 4000960:	f854 1035 	ldr.w	r1, [r4, r5, lsl #3]
 4000964:	4288      	cmp	r0, r1
 4000966:	eb04 0302 	add.w	r3, r4, r2
 400096a:	d102      	bne.n	4000972 <CMEM_NOR_Construct_RegionInfo_Internal+0x40>
 400096c:	685a      	ldr	r2, [r3, #4]
 400096e:	3201      	adds	r2, #1
 4000970:	e006      	b.n	4000980 <CMEM_NOR_Construct_RegionInfo_Internal+0x4e>
 4000972:	3501      	adds	r5, #1
 4000974:	2d09      	cmp	r5, #9
 4000976:	d00a      	beq.n	400098e <CMEM_NOR_Construct_RegionInfo_Internal+0x5c>
 4000978:	3208      	adds	r2, #8
 400097a:	18a3      	adds	r3, r4, r2
 400097c:	50a0      	str	r0, [r4, r2]
 400097e:	2201      	movs	r2, #1
 4000980:	605a      	str	r2, [r3, #4]
 4000982:	4406      	add	r6, r0
 4000984:	3701      	adds	r7, #1
 4000986:	e7dd      	b.n	4000944 <CMEM_NOR_Construct_RegionInfo_Internal+0x12>
 4000988:	2000      	movs	r0, #0
 400098a:	e8bd 83f8 	ldmia.w	sp!, {r3, r4, r5, r6, r7, r8, r9, pc}
 400098e:	2006      	movs	r0, #6
 4000990:	e8bd 83f8 	ldmia.w	sp!, {r3, r4, r5, r6, r7, r8, r9, pc}

04000994 <NOR_Construct_RegionInfo>:
 4000994:	b570      	push	{r4, r5, r6, lr}
 4000996:	4606      	mov	r6, r0
 4000998:	460d      	mov	r5, r1
 400099a:	4614      	mov	r4, r2
 400099c:	4610      	mov	r0, r2
 400099e:	2100      	movs	r1, #0
 40009a0:	2240      	movs	r2, #64	; 0x40
 40009a2:	f004 fe05 	bl	40055b0 <memset>
 40009a6:	4b04      	ldr	r3, [pc, #16]	; (40009b8 <NOR_Construct_RegionInfo+0x24>)
 40009a8:	4630      	mov	r0, r6
 40009aa:	4629      	mov	r1, r5
 40009ac:	4622      	mov	r2, r4
 40009ae:	681b      	ldr	r3, [r3, #0]
 40009b0:	e8bd 4070 	ldmia.w	sp!, {r4, r5, r6, lr}
 40009b4:	f7ff bfbd 	b.w	4000932 <CMEM_NOR_Construct_RegionInfo_Internal>
 40009b8:	000002e4 	andeq	r0, r0, r4, ror #5

040009bc <CMEM_Init_nor_list>:
 40009bc:	b508      	push	{r3, lr}
 40009be:	b950      	cbnz	r0, 40009d6 <CMEM_Init_nor_list+0x1a>
 40009c0:	f7ff ff50 	bl	4000864 <CMEM_Index>
 40009c4:	4a06      	ldr	r2, [pc, #24]	; (40009e0 <CMEM_Init_nor_list+0x24>)
 40009c6:	2800      	cmp	r0, #0
 40009c8:	6010      	str	r0, [r2, #0]
 40009ca:	da00      	bge.n	40009ce <CMEM_Init_nor_list+0x12>
 40009cc:	e7fe      	b.n	40009cc <CMEM_Init_nor_list+0x10>
 40009ce:	f7ff ff79 	bl	40008c4 <CMEM_GetIDEntry>
 40009d2:	4b04      	ldr	r3, [pc, #16]	; (40009e4 <CMEM_Init_nor_list+0x28>)
 40009d4:	6018      	str	r0, [r3, #0]
 40009d6:	4b04      	ldr	r3, [pc, #16]	; (40009e8 <CMEM_Init_nor_list+0x2c>)
 40009d8:	4a04      	ldr	r2, [pc, #16]	; (40009ec <CMEM_Init_nor_list+0x30>)
 40009da:	601a      	str	r2, [r3, #0]
 40009dc:	bd08      	pop	{r3, pc}
 40009de:	bf00      	nop
 40009e0:	00000244 	andeq	r0, r0, r4, asr #4
 40009e4:	00000240 	andeq	r0, r0, r0, asr #4
 40009e8:	00000284 	andeq	r0, r0, r4, lsl #5
 40009ec:	04005660 	streq	r5, [r0], #-1632	; 0x660

040009f0 <CMEM_Init_FullDriver>:
 40009f0:	e92d 47f0 	stmdb	sp!, {r4, r5, r6, r7, r8, r9, sl, lr}
 40009f4:	f8df 90b8 	ldr.w	r9, [pc, #184]	; 4000ab0 <CMEM_Init_FullDriver+0xc0>
 40009f8:	f8df a0b8 	ldr.w	sl, [pc, #184]	; 4000ab4 <CMEM_Init_FullDriver+0xc4>
 40009fc:	4c24      	ldr	r4, [pc, #144]	; (4000a90 <CMEM_Init_FullDriver+0xa0>)
 40009fe:	4f25      	ldr	r7, [pc, #148]	; (4000a94 <CMEM_Init_FullDriver+0xa4>)
 4000a00:	f8df 80b4 	ldr.w	r8, [pc, #180]	; 4000ab8 <CMEM_Init_FullDriver+0xc8>
 4000a04:	2000      	movs	r0, #0
 4000a06:	f7ff ffd9 	bl	40009bc <CMEM_Init_nor_list>
 4000a0a:	f8d9 3000 	ldr.w	r3, [r9]
 4000a0e:	f8da 1000 	ldr.w	r1, [sl]
 4000a12:	4821      	ldr	r0, [pc, #132]	; (4000a98 <CMEM_Init_FullDriver+0xa8>)
 4000a14:	2688      	movs	r6, #136	; 0x88
 4000a16:	fb06 3101 	mla	r1, r6, r1, r3
 4000a1a:	4b20      	ldr	r3, [pc, #128]	; (4000a9c <CMEM_Init_FullDriver+0xac>)
 4000a1c:	884a      	ldrh	r2, [r1, #2]
 4000a1e:	601a      	str	r2, [r3, #0]
 4000a20:	4b1f      	ldr	r3, [pc, #124]	; (4000aa0 <CMEM_Init_FullDriver+0xb0>)
 4000a22:	f101 0208 	add.w	r2, r1, #8
 4000a26:	601a      	str	r2, [r3, #0]
 4000a28:	3148      	adds	r1, #72	; 0x48
 4000a2a:	2240      	movs	r2, #64	; 0x40
 4000a2c:	f004 fdb7 	bl	400559e <memcpy>
 4000a30:	4b1c      	ldr	r3, [pc, #112]	; (4000aa4 <CMEM_Init_FullDriver+0xb4>)
 4000a32:	f8c4 30ac 	str.w	r3, [r4, #172]	; 0xac
 4000a36:	4b1c      	ldr	r3, [pc, #112]	; (4000aa8 <CMEM_Init_FullDriver+0xb8>)
 4000a38:	f8c4 30b0 	str.w	r3, [r4, #176]	; 0xb0
 4000a3c:	43fb      	mvns	r3, r7
 4000a3e:	f8da 1000 	ldr.w	r1, [sl]
 4000a42:	6023      	str	r3, [r4, #0]
 4000a44:	f8d9 3000 	ldr.w	r3, [r9]
 4000a48:	f04f 6200 	mov.w	r2, #134217728	; 0x8000000
 4000a4c:	fb06 3601 	mla	r6, r6, r1, r3
 4000a50:	2500      	movs	r5, #0
 4000a52:	f8a4 50c6 	strh.w	r5, [r4, #198]	; 0xc6
 4000a56:	6062      	str	r2, [r4, #4]
 4000a58:	4640      	mov	r0, r8
 4000a5a:	4621      	mov	r1, r4
 4000a5c:	6873      	ldr	r3, [r6, #4]
 4000a5e:	f7ff feac 	bl	40007ba <SF_DAL_Init_Driver>
 4000a62:	3078      	adds	r0, #120	; 0x78
 4000a64:	d100      	bne.n	4000a68 <CMEM_Init_FullDriver+0x78>
 4000a66:	e7fe      	b.n	4000a66 <CMEM_Init_FullDriver+0x76>
 4000a68:	480b      	ldr	r0, [pc, #44]	; (4000a98 <CMEM_Init_FullDriver+0xa8>)
 4000a6a:	4e10      	ldr	r6, [pc, #64]	; (4000aac <CMEM_Init_FullDriver+0xbc>)
 4000a6c:	f7ff ff56 	bl	400091c <NOR_Get_FlashSizeFromBankInfo>
 4000a70:	463a      	mov	r2, r7
 4000a72:	4601      	mov	r1, r0
 4000a74:	6030      	str	r0, [r6, #0]
 4000a76:	4628      	mov	r0, r5
 4000a78:	f7ff ff8c 	bl	4000994 <NOR_Construct_RegionInfo>
 4000a7c:	6167      	str	r7, [r4, #20]
 4000a7e:	f8c6 8004 	str.w	r8, [r6, #4]
 4000a82:	60b4      	str	r4, [r6, #8]
 4000a84:	f886 5080 	strb.w	r5, [r6, #128]	; 0x80
 4000a88:	4628      	mov	r0, r5
 4000a8a:	e8bd 87f0 	ldmia.w	sp!, {r4, r5, r6, r7, r8, r9, sl, pc}
 4000a8e:	bf00      	nop
 4000a90:	00000328 	andeq	r0, r0, r8, lsr #6
 4000a94:	000002a4 	andeq	r0, r0, r4, lsr #5
 4000a98:	000002e8 	andeq	r0, r0, r8, ror #5
 4000a9c:	000001b8 			; <UNDEFINED> instruction: 0x000001b8
 4000aa0:	000002e4 	andeq	r0, r0, r4, ror #5
 4000aa4:	0000040c 	andeq	r0, r0, ip, lsl #8
 4000aa8:	00000288 	andeq	r0, r0, r8, lsl #5
 4000aac:	000001bc 			; <UNDEFINED> instruction: 0x000001bc
 4000ab0:	00000284 	andeq	r0, r0, r4, lsl #5
 4000ab4:	00000244 	andeq	r0, r0, r4, asr #4
 4000ab8:	00000248 	andeq	r0, r0, r8, asr #4

04000abc <MountDevice>:
 4000abc:	b510      	push	{r4, lr}
 4000abe:	f890 3080 	ldrb.w	r3, [r0, #128]	; 0x80
 4000ac2:	4604      	mov	r4, r0
 4000ac4:	b95b      	cbnz	r3, 4000ade <MountDevice+0x22>
 4000ac6:	6843      	ldr	r3, [r0, #4]
 4000ac8:	6880      	ldr	r0, [r0, #8]
 4000aca:	681b      	ldr	r3, [r3, #0]
 4000acc:	f104 010c 	add.w	r1, r4, #12
 4000ad0:	4798      	blx	r3
 4000ad2:	2800      	cmp	r0, #0
 4000ad4:	da00      	bge.n	4000ad8 <MountDevice+0x1c>
 4000ad6:	e7fe      	b.n	4000ad6 <MountDevice+0x1a>
 4000ad8:	2301      	movs	r3, #1
 4000ada:	f884 3080 	strb.w	r3, [r4, #128]	; 0x80
 4000ade:	bd10      	pop	{r4, pc}

04000ae0 <readRawDiskData>:
 4000ae0:	b5f8      	push	{r3, r4, r5, r6, r7, lr}
 4000ae2:	461d      	mov	r5, r3
 4000ae4:	6803      	ldr	r3, [r0, #0]
 4000ae6:	4299      	cmp	r1, r3
 4000ae8:	4616      	mov	r6, r2
 4000aea:	d211      	bcs.n	4000b10 <readRawDiskData+0x30>
 4000aec:	194a      	adds	r2, r1, r5
 4000aee:	429a      	cmp	r2, r3
 4000af0:	d80e      	bhi.n	4000b10 <readRawDiskData+0x30>
 4000af2:	6883      	ldr	r3, [r0, #8]
 4000af4:	685f      	ldr	r7, [r3, #4]
 4000af6:	f890 3080 	ldrb.w	r3, [r0, #128]	; 0x80
 4000afa:	440f      	add	r7, r1
 4000afc:	b90b      	cbnz	r3, 4000b02 <readRawDiskData+0x22>
 4000afe:	f7ff ffdd 	bl	4000abc <MountDevice>
 4000b02:	4630      	mov	r0, r6
 4000b04:	4639      	mov	r1, r7
 4000b06:	462a      	mov	r2, r5
 4000b08:	f004 fd49 	bl	400559e <memcpy>
 4000b0c:	2000      	movs	r0, #0
 4000b0e:	bdf8      	pop	{r3, r4, r5, r6, r7, pc}
 4000b10:	2002      	movs	r0, #2
 4000b12:	bdf8      	pop	{r3, r4, r5, r6, r7, pc}

04000b14 <writeRawDiskData>:
 4000b14:	e92d 4ff0 	stmdb	sp!, {r4, r5, r6, r7, r8, r9, sl, fp, lr}
 4000b18:	469a      	mov	sl, r3
 4000b1a:	6803      	ldr	r3, [r0, #0]
 4000b1c:	4299      	cmp	r1, r3
 4000b1e:	b085      	sub	sp, #20
 4000b20:	4604      	mov	r4, r0
 4000b22:	4688      	mov	r8, r1
 4000b24:	4693      	mov	fp, r2
 4000b26:	d26c      	bcs.n	4000c02 <writeRawDiskData+0xee>
 4000b28:	eb01 020a 	add.w	r2, r1, sl
 4000b2c:	429a      	cmp	r2, r3
 4000b2e:	d86a      	bhi.n	4000c06 <writeRawDiskData+0xf2>
 4000b30:	f890 3080 	ldrb.w	r3, [r0, #128]	; 0x80
 4000b34:	b90b      	cbnz	r3, 4000b3a <writeRawDiskData+0x26>
 4000b36:	f7ff ffc1 	bl	4000abc <MountDevice>
 4000b3a:	2500      	movs	r5, #0
 4000b3c:	4555      	cmp	r5, sl
 4000b3e:	d25e      	bcs.n	4000bfe <writeRawDiskData+0xea>
 4000b40:	6863      	ldr	r3, [r4, #4]
 4000b42:	68a2      	ldr	r2, [r4, #8]
 4000b44:	f8d3 9008 	ldr.w	r9, [r3, #8]
 4000b48:	6856      	ldr	r6, [r2, #4]
 4000b4a:	9201      	str	r2, [sp, #4]
 4000b4c:	eb05 0308 	add.w	r3, r5, r8
 4000b50:	4619      	mov	r1, r3
 4000b52:	4610      	mov	r0, r2
 4000b54:	9300      	str	r3, [sp, #0]
 4000b56:	f007 fb88 	bl	400826a <BlockIndex>
 4000b5a:	9a01      	ldr	r2, [sp, #4]
 4000b5c:	4446      	add	r6, r8
 4000b5e:	4601      	mov	r1, r0
 4000b60:	442e      	add	r6, r5
 4000b62:	4610      	mov	r0, r2
 4000b64:	2200      	movs	r2, #0
 4000b66:	47c8      	blx	r9
 4000b68:	f016 0f01 	tst.w	r6, #1
 4000b6c:	eb0b 0705 	add.w	r7, fp, r5
 4000b70:	9b00      	ldr	r3, [sp, #0]
 4000b72:	d104      	bne.n	4000b7e <writeRawDiskData+0x6a>
 4000b74:	ebc5 090a 	rsb	r9, r5, sl
 4000b78:	f1b9 0f01 	cmp.w	r9, #1
 4000b7c:	d10b      	bne.n	4000b96 <writeRawDiskData+0x82>
 4000b7e:	6863      	ldr	r3, [r4, #4]
 4000b80:	68a0      	ldr	r0, [r4, #8]
 4000b82:	f8d3 c010 	ldr.w	ip, [r3, #16]
 4000b86:	4631      	mov	r1, r6
 4000b88:	463a      	mov	r2, r7
 4000b8a:	2301      	movs	r3, #1
 4000b8c:	47e0      	blx	ip
 4000b8e:	2800      	cmp	r0, #0
 4000b90:	d13b      	bne.n	4000c0a <writeRawDiskData+0xf6>
 4000b92:	3501      	adds	r5, #1
 4000b94:	e7d2      	b.n	4000b3c <writeRawDiskData+0x28>
 4000b96:	68a2      	ldr	r2, [r4, #8]
 4000b98:	9201      	str	r2, [sp, #4]
 4000b9a:	4619      	mov	r1, r3
 4000b9c:	4610      	mov	r0, r2
 4000b9e:	f007 fb64 	bl	400826a <BlockIndex>
 4000ba2:	9a01      	ldr	r2, [sp, #4]
 4000ba4:	4601      	mov	r1, r0
 4000ba6:	4610      	mov	r0, r2
 4000ba8:	f007 fb50 	bl	400824c <BlockSize>
 4000bac:	4243      	negs	r3, r0
 4000bae:	4430      	add	r0, r6
 4000bb0:	4018      	ands	r0, r3
 4000bb2:	eb09 0306 	add.w	r3, r9, r6
 4000bb6:	4283      	cmp	r3, r0
 4000bb8:	bf88      	it	hi
 4000bba:	ebc6 0900 	rsbhi	r9, r6, r0
 4000bbe:	f029 0901 	bic.w	r9, r9, #1
 4000bc2:	f1b9 0f02 	cmp.w	r9, #2
 4000bc6:	6863      	ldr	r3, [r4, #4]
 4000bc8:	d10f      	bne.n	4000bea <writeRawDiskData+0xd6>
 4000bca:	07fa      	lsls	r2, r7, #31
 4000bcc:	d50d      	bpl.n	4000bea <writeRawDiskData+0xd6>
 4000bce:	783a      	ldrb	r2, [r7, #0]
 4000bd0:	f88d 200e 	strb.w	r2, [sp, #14]
 4000bd4:	787a      	ldrb	r2, [r7, #1]
 4000bd6:	f88d 200f 	strb.w	r2, [sp, #15]
 4000bda:	691f      	ldr	r7, [r3, #16]
 4000bdc:	68a0      	ldr	r0, [r4, #8]
 4000bde:	4631      	mov	r1, r6
 4000be0:	f10d 020e 	add.w	r2, sp, #14
 4000be4:	464b      	mov	r3, r9
 4000be6:	47b8      	blx	r7
 4000be8:	e006      	b.n	4000bf8 <writeRawDiskData+0xe4>
 4000bea:	f8d3 c010 	ldr.w	ip, [r3, #16]
 4000bee:	68a0      	ldr	r0, [r4, #8]
 4000bf0:	4631      	mov	r1, r6
 4000bf2:	463a      	mov	r2, r7
 4000bf4:	464b      	mov	r3, r9
 4000bf6:	47e0      	blx	ip
 4000bf8:	b938      	cbnz	r0, 4000c0a <writeRawDiskData+0xf6>
 4000bfa:	444d      	add	r5, r9
 4000bfc:	e79e      	b.n	4000b3c <writeRawDiskData+0x28>
 4000bfe:	2000      	movs	r0, #0
 4000c00:	e004      	b.n	4000c0c <writeRawDiskData+0xf8>
 4000c02:	2002      	movs	r0, #2
 4000c04:	e002      	b.n	4000c0c <writeRawDiskData+0xf8>
 4000c06:	2003      	movs	r0, #3
 4000c08:	e000      	b.n	4000c0c <writeRawDiskData+0xf8>
 4000c0a:	2005      	movs	r0, #5
 4000c0c:	b005      	add	sp, #20
 4000c0e:	e8bd 8ff0 	ldmia.w	sp!, {r4, r5, r6, r7, r8, r9, sl, fp, pc}

04000c12 <eraseRawDiskBlock>:
 4000c12:	b538      	push	{r3, r4, r5, lr}
 4000c14:	f890 3080 	ldrb.w	r3, [r0, #128]	; 0x80
 4000c18:	4604      	mov	r4, r0
 4000c1a:	460d      	mov	r5, r1
 4000c1c:	b90b      	cbnz	r3, 4000c22 <eraseRawDiskBlock+0x10>
 4000c1e:	f7ff ff4d 	bl	4000abc <MountDevice>
 4000c22:	68e3      	ldr	r3, [r4, #12]
 4000c24:	429d      	cmp	r5, r3
 4000c26:	d20f      	bcs.n	4000c48 <eraseRawDiskBlock+0x36>
 4000c28:	6863      	ldr	r3, [r4, #4]
 4000c2a:	68a0      	ldr	r0, [r4, #8]
 4000c2c:	689b      	ldr	r3, [r3, #8]
 4000c2e:	4629      	mov	r1, r5
 4000c30:	2200      	movs	r2, #0
 4000c32:	4798      	blx	r3
 4000c34:	6863      	ldr	r3, [r4, #4]
 4000c36:	68a0      	ldr	r0, [r4, #8]
 4000c38:	68db      	ldr	r3, [r3, #12]
 4000c3a:	4629      	mov	r1, r5
 4000c3c:	4798      	blx	r3
 4000c3e:	2800      	cmp	r0, #0
 4000c40:	bf14      	ite	ne
 4000c42:	2006      	movne	r0, #6
 4000c44:	2000      	moveq	r0, #0
 4000c46:	bd38      	pop	{r3, r4, r5, pc}
 4000c48:	2002      	movs	r0, #2
 4000c4a:	bd38      	pop	{r3, r4, r5, pc}

04000c4c <NOR_init>:
 4000c4c:	b510      	push	{r4, lr}
 4000c4e:	4c07      	ldr	r4, [pc, #28]	; (4000c6c <NOR_init+0x20>)
 4000c50:	f994 3000 	ldrsb.w	r3, [r4]
 4000c54:	3305      	adds	r3, #5
 4000c56:	d106      	bne.n	4000c66 <NOR_init+0x1a>
 4000c58:	f7ff fe3f 	bl	40008da <Custom_NOR_Init>
 4000c5c:	4804      	ldr	r0, [pc, #16]	; (4000c70 <NOR_init+0x24>)
 4000c5e:	f7ff ff2d 	bl	4000abc <MountDevice>
 4000c62:	2300      	movs	r3, #0
 4000c64:	7023      	strb	r3, [r4, #0]
 4000c66:	2000      	movs	r0, #0
 4000c68:	bd10      	pop	{r4, pc}
 4000c6a:	bf00      	nop
 4000c6c:	04009c04 	streq	r9, [r0], #-3076	; 0xc04
 4000c70:	000001bc 			; <UNDEFINED> instruction: 0x000001bc

04000c74 <NOR_BlockSize>:
 4000c74:	4b02      	ldr	r3, [pc, #8]	; (4000c80 <NOR_BlockSize+0xc>)
 4000c76:	4601      	mov	r1, r0
 4000c78:	6898      	ldr	r0, [r3, #8]
 4000c7a:	f007 bae7 	b.w	400824c <BlockSize>
 4000c7e:	bf00      	nop
 4000c80:	000001bc 			; <UNDEFINED> instruction: 0x000001bc

04000c84 <NOR_BlockIndex>:
 4000c84:	4b02      	ldr	r3, [pc, #8]	; (4000c90 <NOR_BlockIndex+0xc>)
 4000c86:	4601      	mov	r1, r0
 4000c88:	6898      	ldr	r0, [r3, #8]
 4000c8a:	f007 baee 	b.w	400826a <BlockIndex>
 4000c8e:	bf00      	nop
 4000c90:	000001bc 			; <UNDEFINED> instruction: 0x000001bc

04000c94 <get_rawdisk_error_code>:
 4000c94:	2802      	cmp	r0, #2
 4000c96:	d008      	beq.n	4000caa <get_rawdisk_error_code+0x16>
 4000c98:	2803      	cmp	r0, #3
 4000c9a:	d008      	beq.n	4000cae <get_rawdisk_error_code+0x1a>
 4000c9c:	2805      	cmp	r0, #5
 4000c9e:	d008      	beq.n	4000cb2 <get_rawdisk_error_code+0x1e>
 4000ca0:	2806      	cmp	r0, #6
 4000ca2:	d008      	beq.n	4000cb6 <get_rawdisk_error_code+0x22>
 4000ca4:	3002      	adds	r0, #2
 4000ca6:	d008      	beq.n	4000cba <get_rawdisk_error_code+0x26>
 4000ca8:	e7fe      	b.n	4000ca8 <get_rawdisk_error_code+0x14>
 4000caa:	20fd      	movs	r0, #253	; 0xfd
 4000cac:	e006      	b.n	4000cbc <get_rawdisk_error_code+0x28>
 4000cae:	20fc      	movs	r0, #252	; 0xfc
 4000cb0:	e004      	b.n	4000cbc <get_rawdisk_error_code+0x28>
 4000cb2:	20fa      	movs	r0, #250	; 0xfa
 4000cb4:	e002      	b.n	4000cbc <get_rawdisk_error_code+0x28>
 4000cb6:	20f9      	movs	r0, #249	; 0xf9
 4000cb8:	e000      	b.n	4000cbc <get_rawdisk_error_code+0x28>
 4000cba:	20fe      	movs	r0, #254	; 0xfe
 4000cbc:	b240      	sxtb	r0, r0
 4000cbe:	4770      	bx	lr

04000cc0 <get_block_size_from_address>:
 4000cc0:	b508      	push	{r3, lr}
 4000cc2:	f7ff ffdf 	bl	4000c84 <NOR_BlockIndex>
 4000cc6:	1c43      	adds	r3, r0, #1
 4000cc8:	d100      	bne.n	4000ccc <get_block_size_from_address+0xc>
 4000cca:	e7fe      	b.n	4000cca <get_block_size_from_address+0xa>
 4000ccc:	f7ff ffd2 	bl	4000c74 <NOR_BlockSize>
 4000cd0:	f5b0 5f80 	cmp.w	r0, #4096	; 0x1000
 4000cd4:	d006      	beq.n	4000ce4 <get_block_size_from_address+0x24>
 4000cd6:	f5b0 4f00 	cmp.w	r0, #32768	; 0x8000
 4000cda:	d005      	beq.n	4000ce8 <get_block_size_from_address+0x28>
 4000cdc:	f5b0 3f80 	cmp.w	r0, #65536	; 0x10000
 4000ce0:	d004      	beq.n	4000cec <get_block_size_from_address+0x2c>
 4000ce2:	e7fe      	b.n	4000ce2 <get_block_size_from_address+0x22>
 4000ce4:	2000      	movs	r0, #0
 4000ce6:	bd08      	pop	{r3, pc}
 4000ce8:	2001      	movs	r0, #1
 4000cea:	bd08      	pop	{r3, pc}
 4000cec:	2002      	movs	r0, #2
 4000cee:	bd08      	pop	{r3, pc}

04000cf0 <hal_flash_init>:
 4000cf0:	b508      	push	{r3, lr}
 4000cf2:	f7ff ffab 	bl	4000c4c <NOR_init>
 4000cf6:	2000      	movs	r0, #0
 4000cf8:	bd08      	pop	{r3, pc}
	...

04000cfc <hal_flash_erase>:
 4000cfc:	b508      	push	{r3, lr}
 4000cfe:	f7ff ffc1 	bl	4000c84 <NOR_BlockIndex>
 4000d02:	1c43      	adds	r3, r0, #1
 4000d04:	4601      	mov	r1, r0
 4000d06:	d007      	beq.n	4000d18 <hal_flash_erase+0x1c>
 4000d08:	4805      	ldr	r0, [pc, #20]	; (4000d20 <hal_flash_erase+0x24>)
 4000d0a:	f7ff ff82 	bl	4000c12 <eraseRawDiskBlock>
 4000d0e:	b128      	cbz	r0, 4000d1c <hal_flash_erase+0x20>
 4000d10:	e8bd 4008 	ldmia.w	sp!, {r3, lr}
 4000d14:	f7ff bfbe 	b.w	4000c94 <get_rawdisk_error_code>
 4000d18:	20fd      	movs	r0, #253	; 0xfd
 4000d1a:	e7ff      	b.n	4000d1c <hal_flash_erase+0x20>
 4000d1c:	b240      	sxtb	r0, r0
 4000d1e:	bd08      	pop	{r3, pc}
 4000d20:	000001bc 			; <UNDEFINED> instruction: 0x000001bc

04000d24 <hal_flash_read>:
 4000d24:	b538      	push	{r3, r4, r5, lr}
 4000d26:	4605      	mov	r5, r0
 4000d28:	460c      	mov	r4, r1
 4000d2a:	4613      	mov	r3, r2
 4000d2c:	4805      	ldr	r0, [pc, #20]	; (4000d44 <hal_flash_read+0x20>)
 4000d2e:	4629      	mov	r1, r5
 4000d30:	4622      	mov	r2, r4
 4000d32:	f7ff fed5 	bl	4000ae0 <readRawDiskData>
 4000d36:	b118      	cbz	r0, 4000d40 <hal_flash_read+0x1c>
 4000d38:	e8bd 4038 	ldmia.w	sp!, {r3, r4, r5, lr}
 4000d3c:	f7ff bfaa 	b.w	4000c94 <get_rawdisk_error_code>
 4000d40:	bd38      	pop	{r3, r4, r5, pc}
 4000d42:	bf00      	nop
 4000d44:	000001bc 			; <UNDEFINED> instruction: 0x000001bc

04000d48 <hal_flash_write>:
 4000d48:	b570      	push	{r4, r5, r6, lr}
 4000d4a:	460b      	mov	r3, r1
 4000d4c:	4605      	mov	r5, r0
 4000d4e:	4616      	mov	r6, r2
 4000d50:	4810      	ldr	r0, [pc, #64]	; (4000d94 <hal_flash_write+0x4c>)
 4000d52:	461a      	mov	r2, r3
 4000d54:	4629      	mov	r1, r5
 4000d56:	4633      	mov	r3, r6
 4000d58:	f7ff fedc 	bl	4000b14 <writeRawDiskData>
 4000d5c:	b118      	cbz	r0, 4000d66 <hal_flash_write+0x1e>
 4000d5e:	e8bd 4070 	ldmia.w	sp!, {r4, r5, r6, lr}
 4000d62:	f7ff bf97 	b.w	4000c94 <get_rawdisk_error_code>
 4000d66:	f105 6500 	add.w	r5, r5, #134217728	; 0x8000000
 4000d6a:	4628      	mov	r0, r5
 4000d6c:	f7ff fb56 	bl	400041c <hal_cache_is_cacheable>
 4000d70:	b168      	cbz	r0, 4000d8e <hal_flash_write+0x46>
 4000d72:	f025 041f 	bic.w	r4, r5, #31
 4000d76:	f106 0320 	add.w	r3, r6, #32
 4000d7a:	442b      	add	r3, r5
 4000d7c:	f023 031f 	bic.w	r3, r3, #31
 4000d80:	429c      	cmp	r4, r3
 4000d82:	d804      	bhi.n	4000d8e <hal_flash_write+0x46>
 4000d84:	4620      	mov	r0, r4
 4000d86:	f007 fa95 	bl	40082b4 <hal_cache_invalidate_one_cache_line>
 4000d8a:	3420      	adds	r4, #32
 4000d8c:	e7f3      	b.n	4000d76 <hal_flash_write+0x2e>
 4000d8e:	2000      	movs	r0, #0
 4000d90:	bd70      	pop	{r4, r5, r6, pc}
 4000d92:	bf00      	nop
 4000d94:	000001bc 			; <UNDEFINED> instruction: 0x000001bc

04000d98 <hal_uart_init>:
 4000d98:	2803      	cmp	r0, #3
 4000d9a:	b5f8      	push	{r3, r4, r5, r6, r7, lr}
 4000d9c:	4605      	mov	r5, r0
 4000d9e:	460c      	mov	r4, r1
 4000da0:	d857      	bhi.n	4000e52 <hal_uart_init+0xba>
 4000da2:	780b      	ldrb	r3, [r1, #0]
 4000da4:	2b0c      	cmp	r3, #12
 4000da6:	d80b      	bhi.n	4000dc0 <hal_uart_init+0x28>
 4000da8:	784b      	ldrb	r3, [r1, #1]
 4000daa:	2b03      	cmp	r3, #3
 4000dac:	d808      	bhi.n	4000dc0 <hal_uart_init+0x28>
 4000dae:	788b      	ldrb	r3, [r1, #2]
 4000db0:	2b01      	cmp	r3, #1
 4000db2:	d805      	bhi.n	4000dc0 <hal_uart_init+0x28>
 4000db4:	78cb      	ldrb	r3, [r1, #3]
 4000db6:	2b02      	cmp	r3, #2
 4000db8:	bf8c      	ite	hi
 4000dba:	2300      	movhi	r3, #0
 4000dbc:	2301      	movls	r3, #1
 4000dbe:	e000      	b.n	4000dc2 <hal_uart_init+0x2a>
 4000dc0:	2300      	movs	r3, #0
 4000dc2:	2b00      	cmp	r3, #0
 4000dc4:	d045      	beq.n	4000e52 <hal_uart_init+0xba>
 4000dc6:	f007 fdef 	bl	40089a8 <save_and_set_interrupt_mask>
 4000dca:	4923      	ldr	r1, [pc, #140]	; (4000e58 <hal_uart_init+0xc0>)
 4000dcc:	5d4b      	ldrb	r3, [r1, r5]
 4000dce:	4607      	mov	r7, r0
 4000dd0:	b11b      	cbz	r3, 4000dda <hal_uart_init+0x42>
 4000dd2:	f007 fded 	bl	40089b0 <restore_interrupt_mask>
 4000dd6:	20fd      	movs	r0, #253	; 0xfd
 4000dd8:	e03c      	b.n	4000e54 <hal_uart_init+0xbc>
 4000dda:	4a20      	ldr	r2, [pc, #128]	; (4000e5c <hal_uart_init+0xc4>)
 4000ddc:	7813      	ldrb	r3, [r2, #0]
 4000dde:	4610      	mov	r0, r2
 4000de0:	b98b      	cbnz	r3, 4000e06 <hal_uart_init+0x6e>
 4000de2:	4e1f      	ldr	r6, [pc, #124]	; (4000e60 <hal_uart_init+0xc8>)
 4000de4:	eb06 0ec3 	add.w	lr, r6, r3, lsl #3
 4000de8:	2200      	movs	r2, #0
 4000dea:	f8ce 2004 	str.w	r2, [lr, #4]
 4000dee:	f846 2033 	str.w	r2, [r6, r3, lsl #3]
 4000df2:	4e1c      	ldr	r6, [pc, #112]	; (4000e64 <hal_uart_init+0xcc>)
 4000df4:	54ca      	strb	r2, [r1, r3]
 4000df6:	559a      	strb	r2, [r3, r6]
 4000df8:	4e1b      	ldr	r6, [pc, #108]	; (4000e68 <hal_uart_init+0xd0>)
 4000dfa:	559a      	strb	r2, [r3, r6]
 4000dfc:	3301      	adds	r3, #1
 4000dfe:	2b04      	cmp	r3, #4
 4000e00:	d1ef      	bne.n	4000de2 <hal_uart_init+0x4a>
 4000e02:	2301      	movs	r3, #1
 4000e04:	7003      	strb	r3, [r0, #0]
 4000e06:	2301      	movs	r3, #1
 4000e08:	4638      	mov	r0, r7
 4000e0a:	554b      	strb	r3, [r1, r5]
 4000e0c:	f007 fdd0 	bl	40089b0 <restore_interrupt_mask>
 4000e10:	4b16      	ldr	r3, [pc, #88]	; (4000e6c <hal_uart_init+0xd4>)
 4000e12:	5d58      	ldrb	r0, [r3, r5]
 4000e14:	f008 f90a 	bl	400902c <hal_clock_enable>
 4000e18:	4607      	mov	r7, r0
 4000e1a:	b100      	cbz	r0, 4000e1e <hal_uart_init+0x86>
 4000e1c:	e7fe      	b.n	4000e1c <hal_uart_init+0x84>
 4000e1e:	4b14      	ldr	r3, [pc, #80]	; (4000e70 <hal_uart_init+0xd8>)
 4000e20:	f853 6025 	ldr.w	r6, [r3, r5, lsl #2]
 4000e24:	4630      	mov	r0, r6
 4000e26:	f000 f8b3 	bl	4000f90 <uart_reset_default_value>
 4000e2a:	7823      	ldrb	r3, [r4, #0]
 4000e2c:	4a11      	ldr	r2, [pc, #68]	; (4000e74 <hal_uart_init+0xdc>)
 4000e2e:	f852 1023 	ldr.w	r1, [r2, r3, lsl #2]
 4000e32:	4a11      	ldr	r2, [pc, #68]	; (4000e78 <hal_uart_init+0xe0>)
 4000e34:	4630      	mov	r0, r6
 4000e36:	5553      	strb	r3, [r2, r5]
 4000e38:	f000 f830 	bl	4000e9c <uart_set_baudrate>
 4000e3c:	4630      	mov	r0, r6
 4000e3e:	7861      	ldrb	r1, [r4, #1]
 4000e40:	78a2      	ldrb	r2, [r4, #2]
 4000e42:	78e3      	ldrb	r3, [r4, #3]
 4000e44:	f000 f87e 	bl	4000f44 <uart_set_format>
 4000e48:	4630      	mov	r0, r6
 4000e4a:	f000 f89b 	bl	4000f84 <uart_set_fifo>
 4000e4e:	4638      	mov	r0, r7
 4000e50:	e000      	b.n	4000e54 <hal_uart_init+0xbc>
 4000e52:	20fc      	movs	r0, #252	; 0xfc
 4000e54:	b240      	sxtb	r0, r0
 4000e56:	bdf8      	pop	{r3, r4, r5, r6, r7, pc}
 4000e58:	00000450 	andeq	r0, r0, r0, asr r4
 4000e5c:	00000454 	andeq	r0, r0, r4, asr r4
 4000e60:	00000424 	andeq	r0, r0, r4, lsr #8
 4000e64:	0000044c 	andeq	r0, r0, ip, asr #8
 4000e68:	00000444 	andeq	r0, r0, r4, asr #8
 4000e6c:	04005940 	streq	r5, [r0], #-2368	; 0x940
 4000e70:	04005944 	streq	r5, [r0], #-2372	; 0x944
 4000e74:	04005908 	streq	r5, [r0], #-2312	; 0x908
 4000e78:	00000448 	andeq	r0, r0, r8, asr #8

04000e7c <hal_uart_put_char>:
 4000e7c:	2803      	cmp	r0, #3
 4000e7e:	d808      	bhi.n	4000e92 <hal_uart_put_char+0x16>
 4000e80:	4b04      	ldr	r3, [pc, #16]	; (4000e94 <hal_uart_put_char+0x18>)
 4000e82:	5c1b      	ldrb	r3, [r3, r0]
 4000e84:	2b01      	cmp	r3, #1
 4000e86:	d104      	bne.n	4000e92 <hal_uart_put_char+0x16>
 4000e88:	4b03      	ldr	r3, [pc, #12]	; (4000e98 <hal_uart_put_char+0x1c>)
 4000e8a:	f853 0020 	ldr.w	r0, [r3, r0, lsl #2]
 4000e8e:	f000 b873 	b.w	4000f78 <uart_put_char_block>
 4000e92:	4770      	bx	lr
 4000e94:	00000450 	andeq	r0, r0, r0, asr r4
 4000e98:	04005944 	streq	r5, [r0], #-2372	; 0x944

04000e9c <uart_set_baudrate>:
 4000e9c:	b5f0      	push	{r4, r5, r6, r7, lr}
 4000e9e:	4d25      	ldr	r5, [pc, #148]	; (4000f34 <uart_set_baudrate+0x98>)
 4000ea0:	4606      	mov	r6, r0
 4000ea2:	460f      	mov	r7, r1
 4000ea4:	cd0f      	ldmia	r5!, {r0, r1, r2, r3}
 4000ea6:	b08b      	sub	sp, #44	; 0x2c
 4000ea8:	466c      	mov	r4, sp
 4000eaa:	c40f      	stmia	r4!, {r0, r1, r2, r3}
 4000eac:	cd0f      	ldmia	r5!, {r0, r1, r2, r3}
 4000eae:	c40f      	stmia	r4!, {r0, r1, r2, r3}
 4000eb0:	e895 0003 	ldmia.w	r5, {r0, r1}
 4000eb4:	2300      	movs	r3, #0
 4000eb6:	e884 0003 	stmia.w	r4, {r0, r1}
 4000eba:	481f      	ldr	r0, [pc, #124]	; (4000f38 <uart_set_baudrate+0x9c>)
 4000ebc:	491f      	ldr	r1, [pc, #124]	; (4000f3c <uart_set_baudrate+0xa0>)
 4000ebe:	6433      	str	r3, [r6, #64]	; 0x40
 4000ec0:	023a      	lsls	r2, r7, #8
 4000ec2:	f5a3 6380 	sub.w	r3, r3, #1024	; 0x400
 4000ec6:	fbb1 f1f2 	udiv	r1, r1, r2
 4000eca:	65b3      	str	r3, [r6, #88]	; 0x58
 4000ecc:	fbb0 f3f2 	udiv	r3, r0, r2
 4000ed0:	220a      	movs	r2, #10
 4000ed2:	fbb1 f4f2 	udiv	r4, r1, r2
 4000ed6:	fb02 1214 	mls	r2, r2, r4, r1
 4000eda:	b902      	cbnz	r2, 4000ede <uart_set_baudrate+0x42>
 4000edc:	b903      	cbnz	r3, 4000ee0 <uart_set_baudrate+0x44>
 4000ede:	3301      	adds	r3, #1
 4000ee0:	fb07 f103 	mul.w	r1, r7, r3
 4000ee4:	fbb0 f2f1 	udiv	r2, r0, r1
 4000ee8:	f5b2 7f80 	cmp.w	r2, #256	; 0x100
 4000eec:	4439      	add	r1, r7
 4000eee:	d901      	bls.n	4000ef4 <uart_set_baudrate+0x58>
 4000ef0:	3301      	adds	r3, #1
 4000ef2:	e7f7      	b.n	4000ee4 <uart_set_baudrate+0x48>
 4000ef4:	2103      	movs	r1, #3
 4000ef6:	6371      	str	r1, [r6, #52]	; 0x34
 4000ef8:	b299      	uxth	r1, r3
 4000efa:	60b1      	str	r1, [r6, #8]
 4000efc:	1e91      	subs	r1, r2, #2
 4000efe:	0849      	lsrs	r1, r1, #1
 4000f00:	3a01      	subs	r2, #1
 4000f02:	ea42 2201 	orr.w	r2, r2, r1, lsl #8
 4000f06:	63b2      	str	r2, [r6, #56]	; 0x38
 4000f08:	4a0c      	ldr	r2, [pc, #48]	; (4000f3c <uart_set_baudrate+0xa0>)
 4000f0a:	437b      	muls	r3, r7
 4000f0c:	fbb2 f3f3 	udiv	r3, r2, r3
 4000f10:	220a      	movs	r2, #10
 4000f12:	fbb3 f1f2 	udiv	r1, r3, r2
 4000f16:	fb02 3311 	mls	r3, r2, r1, r3
 4000f1a:	aa0a      	add	r2, sp, #40	; 0x28
 4000f1c:	eb02 0383 	add.w	r3, r2, r3, lsl #2
 4000f20:	f853 3c28 	ldr.w	r3, [r3, #-40]
 4000f24:	65b3      	str	r3, [r6, #88]	; 0x58
 4000f26:	4b06      	ldr	r3, [pc, #24]	; (4000f40 <uart_set_baudrate+0xa4>)
 4000f28:	429f      	cmp	r7, r3
 4000f2a:	bf84      	itt	hi
 4000f2c:	2312      	movhi	r3, #18
 4000f2e:	6473      	strhi	r3, [r6, #68]	; 0x44
 4000f30:	b00b      	add	sp, #44	; 0x2c
 4000f32:	bdf0      	pop	{r4, r5, r6, r7, pc}
 4000f34:	040055e4 	streq	r5, [r0], #-1508	; 0x5e4
 4000f38:	018cba80 	orreq	fp, ip, r0, lsl #21
 4000f3c:	0f7f4900 	svceq	0x007f4900
 4000f40:	002dc6bf 			; <UNDEFINED> instruction: 0x002dc6bf

04000f44 <uart_set_format>:
 4000f44:	2903      	cmp	r1, #3
 4000f46:	b510      	push	{r4, lr}
 4000f48:	bf9a      	itte	ls
 4000f4a:	4c0a      	ldrls	r4, [pc, #40]	; (4000f74 <uart_set_format+0x30>)
 4000f4c:	5c61      	ldrbls	r1, [r4, r1]
 4000f4e:	2103      	movhi	r1, #3
 4000f50:	2a01      	cmp	r2, #1
 4000f52:	bf08      	it	eq
 4000f54:	f041 0104 	orreq.w	r1, r1, #4
 4000f58:	2b01      	cmp	r3, #1
 4000f5a:	d003      	beq.n	4000f64 <uart_set_format+0x20>
 4000f5c:	d305      	bcc.n	4000f6a <uart_set_format+0x26>
 4000f5e:	2b02      	cmp	r3, #2
 4000f60:	d005      	beq.n	4000f6e <uart_set_format+0x2a>
 4000f62:	e002      	b.n	4000f6a <uart_set_format+0x26>
 4000f64:	f041 0108 	orr.w	r1, r1, #8
 4000f68:	e001      	b.n	4000f6e <uart_set_format+0x2a>
 4000f6a:	f041 0120 	orr.w	r1, r1, #32
 4000f6e:	7701      	strb	r1, [r0, #28]
 4000f70:	bd10      	pop	{r4, pc}
 4000f72:	bf00      	nop
 4000f74:	0400593c 	streq	r5, [r0], #-2364	; 0x93c

04000f78 <uart_put_char_block>:
 4000f78:	6a83      	ldr	r3, [r0, #40]	; 0x28
 4000f7a:	069b      	lsls	r3, r3, #26
 4000f7c:	d5fc      	bpl.n	4000f78 <uart_put_char_block>
 4000f7e:	6041      	str	r1, [r0, #4]
 4000f80:	4770      	bx	lr
	...

04000f84 <uart_set_fifo>:
 4000f84:	4b01      	ldr	r3, [pc, #4]	; (4000f8c <uart_set_fifo+0x8>)
 4000f86:	6143      	str	r3, [r0, #20]
 4000f88:	4770      	bx	lr
 4000f8a:	bf00      	nop
 4000f8c:	01010801 	tsteq	r1, r1, lsl #16

04000f90 <uart_reset_default_value>:
 4000f90:	2300      	movs	r3, #0
 4000f92:	61c3      	str	r3, [r0, #28]
 4000f94:	6243      	str	r3, [r0, #36]	; 0x24
 4000f96:	6083      	str	r3, [r0, #8]
 4000f98:	60c3      	str	r3, [r0, #12]
 4000f9a:	6143      	str	r3, [r0, #20]
 4000f9c:	6183      	str	r3, [r0, #24]
 4000f9e:	6203      	str	r3, [r0, #32]
 4000fa0:	62c3      	str	r3, [r0, #44]	; 0x2c
 4000fa2:	6343      	str	r3, [r0, #52]	; 0x34
 4000fa4:	6383      	str	r3, [r0, #56]	; 0x38
 4000fa6:	6403      	str	r3, [r0, #64]	; 0x40
 4000fa8:	6303      	str	r3, [r0, #48]	; 0x30
 4000faa:	6443      	str	r3, [r0, #68]	; 0x44
 4000fac:	6483      	str	r3, [r0, #72]	; 0x48
 4000fae:	64c3      	str	r3, [r0, #76]	; 0x4c
 4000fb0:	6503      	str	r3, [r0, #80]	; 0x50
 4000fb2:	6543      	str	r3, [r0, #84]	; 0x54
 4000fb4:	6583      	str	r3, [r0, #88]	; 0x58
 4000fb6:	6603      	str	r3, [r0, #96]	; 0x60
 4000fb8:	65c3      	str	r3, [r0, #92]	; 0x5c
 4000fba:	4770      	bx	lr

04000fbc <rtc_wait_busy>:
 4000fbc:	4b04      	ldr	r3, [pc, #16]	; (4000fd0 <rtc_wait_busy+0x14>)
 4000fbe:	681a      	ldr	r2, [r3, #0]
 4000fc0:	4b04      	ldr	r3, [pc, #16]	; (4000fd4 <rtc_wait_busy+0x18>)
 4000fc2:	f892 1075 	ldrb.w	r1, [r2, #117]	; 0x75
 4000fc6:	07c9      	lsls	r1, r1, #31
 4000fc8:	d501      	bpl.n	4000fce <rtc_wait_busy+0x12>
 4000fca:	3b01      	subs	r3, #1
 4000fcc:	d1f9      	bne.n	4000fc2 <rtc_wait_busy+0x6>
 4000fce:	4770      	bx	lr
 4000fd0:	04009c0c 	streq	r9, [r0], #-3084	; 0xc0c
 4000fd4:	006eeeee 	rsbeq	lr, lr, lr, ror #29

04000fd8 <rtc_write_osc32con0>:
 4000fd8:	b570      	push	{r4, r5, r6, lr}
 4000fda:	4c12      	ldr	r4, [pc, #72]	; (4001024 <rtc_write_osc32con0+0x4c>)
 4000fdc:	6823      	ldr	r3, [r4, #0]
 4000fde:	f641 2257 	movw	r2, #6743	; 0x1a57
 4000fe2:	641a      	str	r2, [r3, #64]	; 0x40
 4000fe4:	460e      	mov	r6, r1
 4000fe6:	4605      	mov	r5, r0
 4000fe8:	f7ff ffe8 	bl	4000fbc <rtc_wait_busy>
 4000fec:	6823      	ldr	r3, [r4, #0]
 4000fee:	f642 3268 	movw	r2, #11112	; 0x2b68
 4000ff2:	641a      	str	r2, [r3, #64]	; 0x40
 4000ff4:	f7ff ffe2 	bl	4000fbc <rtc_wait_busy>
 4000ff8:	2e01      	cmp	r6, #1
 4000ffa:	d00a      	beq.n	4001012 <rtc_write_osc32con0+0x3a>
 4000ffc:	d304      	bcc.n	4001008 <rtc_write_osc32con0+0x30>
 4000ffe:	2e02      	cmp	r6, #2
 4001000:	d10b      	bne.n	400101a <rtc_write_osc32con0+0x42>
 4001002:	6823      	ldr	r3, [r4, #0]
 4001004:	641d      	str	r5, [r3, #64]	; 0x40
 4001006:	e008      	b.n	400101a <rtc_write_osc32con0+0x42>
 4001008:	6823      	ldr	r3, [r4, #0]
 400100a:	b2ed      	uxtb	r5, r5
 400100c:	f883 5040 	strb.w	r5, [r3, #64]	; 0x40
 4001010:	e003      	b.n	400101a <rtc_write_osc32con0+0x42>
 4001012:	6823      	ldr	r3, [r4, #0]
 4001014:	b2ed      	uxtb	r5, r5
 4001016:	f883 5041 	strb.w	r5, [r3, #65]	; 0x41
 400101a:	e8bd 4070 	ldmia.w	sp!, {r4, r5, r6, lr}
 400101e:	f7ff bfcd 	b.w	4000fbc <rtc_wait_busy>
 4001022:	bf00      	nop
 4001024:	04009c0c 	streq	r9, [r0], #-3084	; 0xc0c

04001028 <rtc_write_osc32con1>:
 4001028:	b538      	push	{r3, r4, r5, lr}
 400102a:	4c0a      	ldr	r4, [pc, #40]	; (4001054 <rtc_write_osc32con1+0x2c>)
 400102c:	6823      	ldr	r3, [r4, #0]
 400102e:	f641 2285 	movw	r2, #6789	; 0x1a85
 4001032:	645a      	str	r2, [r3, #68]	; 0x44
 4001034:	4605      	mov	r5, r0
 4001036:	f7ff ffc1 	bl	4000fbc <rtc_wait_busy>
 400103a:	6823      	ldr	r3, [r4, #0]
 400103c:	f24e 72cf 	movw	r2, #59343	; 0xe7cf
 4001040:	645a      	str	r2, [r3, #68]	; 0x44
 4001042:	f7ff ffbb 	bl	4000fbc <rtc_wait_busy>
 4001046:	6823      	ldr	r3, [r4, #0]
 4001048:	645d      	str	r5, [r3, #68]	; 0x44
 400104a:	e8bd 4038 	ldmia.w	sp!, {r3, r4, r5, lr}
 400104e:	f7ff bfb5 	b.w	4000fbc <rtc_wait_busy>
 4001052:	bf00      	nop
 4001054:	04009c0c 	streq	r9, [r0], #-3084	; 0xc0c

04001058 <rtc_write_osc32con2>:
 4001058:	b570      	push	{r4, r5, r6, lr}
 400105a:	4c12      	ldr	r4, [pc, #72]	; (40010a4 <rtc_write_osc32con2+0x4c>)
 400105c:	6823      	ldr	r3, [r4, #0]
 400105e:	f241 6253 	movw	r2, #5715	; 0x1653
 4001062:	649a      	str	r2, [r3, #72]	; 0x48
 4001064:	460e      	mov	r6, r1
 4001066:	4605      	mov	r5, r0
 4001068:	f7ff ffa8 	bl	4000fbc <rtc_wait_busy>
 400106c:	6823      	ldr	r3, [r4, #0]
 400106e:	f648 1218 	movw	r2, #35096	; 0x8918
 4001072:	649a      	str	r2, [r3, #72]	; 0x48
 4001074:	f7ff ffa2 	bl	4000fbc <rtc_wait_busy>
 4001078:	2e01      	cmp	r6, #1
 400107a:	d00a      	beq.n	4001092 <rtc_write_osc32con2+0x3a>
 400107c:	d304      	bcc.n	4001088 <rtc_write_osc32con2+0x30>
 400107e:	2e02      	cmp	r6, #2
 4001080:	d10b      	bne.n	400109a <rtc_write_osc32con2+0x42>
 4001082:	6823      	ldr	r3, [r4, #0]
 4001084:	649d      	str	r5, [r3, #72]	; 0x48
 4001086:	e008      	b.n	400109a <rtc_write_osc32con2+0x42>
 4001088:	6823      	ldr	r3, [r4, #0]
 400108a:	b2ed      	uxtb	r5, r5
 400108c:	f883 5048 	strb.w	r5, [r3, #72]	; 0x48
 4001090:	e003      	b.n	400109a <rtc_write_osc32con2+0x42>
 4001092:	6823      	ldr	r3, [r4, #0]
 4001094:	b2ed      	uxtb	r5, r5
 4001096:	f883 5049 	strb.w	r5, [r3, #73]	; 0x49
 400109a:	e8bd 4070 	ldmia.w	sp!, {r4, r5, r6, lr}
 400109e:	f7ff bf8d 	b.w	4000fbc <rtc_wait_busy>
 40010a2:	bf00      	nop
 40010a4:	04009c0c 	streq	r9, [r0], #-3084	; 0xc0c

040010a8 <rtc_write_sramcon>:
 40010a8:	b570      	push	{r4, r5, r6, lr}
 40010aa:	4c12      	ldr	r4, [pc, #72]	; (40010f4 <rtc_write_sramcon+0x4c>)
 40010ac:	6823      	ldr	r3, [r4, #0]
 40010ae:	f645 524a 	movw	r2, #23882	; 0x5d4a
 40010b2:	64da      	str	r2, [r3, #76]	; 0x4c
 40010b4:	460e      	mov	r6, r1
 40010b6:	4605      	mov	r5, r0
 40010b8:	f7ff ff80 	bl	4000fbc <rtc_wait_busy>
 40010bc:	6823      	ldr	r3, [r4, #0]
 40010be:	f249 423f 	movw	r2, #37951	; 0x943f
 40010c2:	64da      	str	r2, [r3, #76]	; 0x4c
 40010c4:	f7ff ff7a 	bl	4000fbc <rtc_wait_busy>
 40010c8:	2e01      	cmp	r6, #1
 40010ca:	d00a      	beq.n	40010e2 <rtc_write_sramcon+0x3a>
 40010cc:	d304      	bcc.n	40010d8 <rtc_write_sramcon+0x30>
 40010ce:	2e02      	cmp	r6, #2
 40010d0:	d10b      	bne.n	40010ea <rtc_write_sramcon+0x42>
 40010d2:	6823      	ldr	r3, [r4, #0]
 40010d4:	64dd      	str	r5, [r3, #76]	; 0x4c
 40010d6:	e008      	b.n	40010ea <rtc_write_sramcon+0x42>
 40010d8:	6823      	ldr	r3, [r4, #0]
 40010da:	b2ed      	uxtb	r5, r5
 40010dc:	f883 504c 	strb.w	r5, [r3, #76]	; 0x4c
 40010e0:	e003      	b.n	40010ea <rtc_write_sramcon+0x42>
 40010e2:	6823      	ldr	r3, [r4, #0]
 40010e4:	b2ed      	uxtb	r5, r5
 40010e6:	f883 504d 	strb.w	r5, [r3, #77]	; 0x4d
 40010ea:	e8bd 4070 	ldmia.w	sp!, {r4, r5, r6, lr}
 40010ee:	f7ff bf65 	b.w	4000fbc <rtc_wait_busy>
 40010f2:	bf00      	nop
 40010f4:	04009c0c 	streq	r9, [r0], #-3084	; 0xc0c

040010f8 <rtc_calendar_time_to_seconds>:
 40010f8:	b570      	push	{r4, r5, r6, lr}
 40010fa:	7905      	ldrb	r5, [r0, #4]
 40010fc:	491b      	ldr	r1, [pc, #108]	; (400116c <rtc_calendar_time_to_seconds+0x74>)
 40010fe:	7982      	ldrb	r2, [r0, #6]
 4001100:	1e6c      	subs	r4, r5, #1
 4001102:	f502 63fa 	add.w	r3, r2, #2000	; 0x7d0
 4001106:	f851 1024 	ldr.w	r1, [r1, r4, lsl #2]
 400110a:	f5a1 2132 	sub.w	r1, r1, #729088	; 0xb2000
 400110e:	f5a1 7164 	sub.w	r1, r1, #912	; 0x390
 4001112:	f240 146d 	movw	r4, #365	; 0x16d
 4001116:	fb04 1403 	mla	r4, r4, r3, r1
 400111a:	2164      	movs	r1, #100	; 0x64
 400111c:	eb04 0492 	add.w	r4, r4, r2, lsr #2
 4001120:	fbb2 f2f1 	udiv	r2, r2, r1
 4001124:	1aa4      	subs	r4, r4, r2
 4001126:	079e      	lsls	r6, r3, #30
 4001128:	f104 0201 	add.w	r2, r4, #1
 400112c:	d104      	bne.n	4001138 <rtc_calendar_time_to_seconds+0x40>
 400112e:	fbb3 f6f1 	udiv	r6, r3, r1
 4001132:	fb01 3116 	mls	r1, r1, r6, r3
 4001136:	b931      	cbnz	r1, 4001146 <rtc_calendar_time_to_seconds+0x4e>
 4001138:	f44f 71c8 	mov.w	r1, #400	; 0x190
 400113c:	fbb3 f6f1 	udiv	r6, r3, r1
 4001140:	fb01 3316 	mls	r3, r1, r6, r3
 4001144:	b913      	cbnz	r3, 400114c <rtc_calendar_time_to_seconds+0x54>
 4001146:	2d02      	cmp	r5, #2
 4001148:	bf98      	it	ls
 400114a:	4622      	movls	r2, r4
 400114c:	78c3      	ldrb	r3, [r0, #3]
 400114e:	3b01      	subs	r3, #1
 4001150:	441a      	add	r2, r3
 4001152:	7883      	ldrb	r3, [r0, #2]
 4001154:	2118      	movs	r1, #24
 4001156:	fb01 3202 	mla	r2, r1, r2, r3
 400115a:	7841      	ldrb	r1, [r0, #1]
 400115c:	7800      	ldrb	r0, [r0, #0]
 400115e:	233c      	movs	r3, #60	; 0x3c
 4001160:	fb03 1202 	mla	r2, r3, r2, r1
 4001164:	fb03 0002 	mla	r0, r3, r2, r0
 4001168:	bd70      	pop	{r4, r5, r6, pc}
 400116a:	bf00      	nop
 400116c:	04005bbc 	streq	r5, [r0], #-3004	; 0xbbc

04001170 <rtc_set_pmu_ao_latch>:
 4001170:	b510      	push	{r4, lr}
 4001172:	4c08      	ldr	r4, [pc, #32]	; (4001194 <rtc_set_pmu_ao_latch+0x24>)
 4001174:	20c8      	movs	r0, #200	; 0xc8
 4001176:	f007 fd39 	bl	4008bec <hal_gpt_delay_us>
 400117a:	6823      	ldr	r3, [r4, #0]
 400117c:	f043 0301 	orr.w	r3, r3, #1
 4001180:	6023      	str	r3, [r4, #0]
 4001182:	20c8      	movs	r0, #200	; 0xc8
 4001184:	f007 fd32 	bl	4008bec <hal_gpt_delay_us>
 4001188:	6823      	ldr	r3, [r4, #0]
 400118a:	f023 0301 	bic.w	r3, r3, #1
 400118e:	6023      	str	r3, [r4, #0]
 4001190:	bd10      	pop	{r4, pc}
 4001192:	bf00      	nop
 4001194:	a2070414 	andge	r0, r7, #20, 8	; 0x14000000

04001198 <rtc_write_trigger_wait>:
 4001198:	4b03      	ldr	r3, [pc, #12]	; (40011a8 <rtc_write_trigger_wait+0x10>)
 400119a:	681b      	ldr	r3, [r3, #0]
 400119c:	2201      	movs	r2, #1
 400119e:	f883 2074 	strb.w	r2, [r3, #116]	; 0x74
 40011a2:	f7ff bf0b 	b.w	4000fbc <rtc_wait_busy>
 40011a6:	bf00      	nop
 40011a8:	04009c0c 	streq	r9, [r0], #-3084	; 0xc0c

040011ac <rtc_unlock_PROT>:
 40011ac:	b510      	push	{r4, lr}
 40011ae:	4c07      	ldr	r4, [pc, #28]	; (40011cc <rtc_unlock_PROT+0x20>)
 40011b0:	6823      	ldr	r3, [r4, #0]
 40011b2:	f645 026a 	movw	r2, #22634	; 0x586a
 40011b6:	669a      	str	r2, [r3, #104]	; 0x68
 40011b8:	f7ff ffee 	bl	4001198 <rtc_write_trigger_wait>
 40011bc:	6823      	ldr	r3, [r4, #0]
 40011be:	f249 1236 	movw	r2, #37174	; 0x9136
 40011c2:	669a      	str	r2, [r3, #104]	; 0x68
 40011c4:	e8bd 4010 	ldmia.w	sp!, {r4, lr}
 40011c8:	f7ff bfe6 	b.w	4001198 <rtc_write_trigger_wait>
 40011cc:	04009c0c 	streq	r9, [r0], #-3084	; 0xc0c

040011d0 <rtc_reload>:
 40011d0:	4b03      	ldr	r3, [pc, #12]	; (40011e0 <rtc_reload+0x10>)
 40011d2:	681b      	ldr	r3, [r3, #0]
 40011d4:	f44f 42b0 	mov.w	r2, #22528	; 0x5800
 40011d8:	601a      	str	r2, [r3, #0]
 40011da:	f7ff bfdd 	b.w	4001198 <rtc_write_trigger_wait>
 40011de:	bf00      	nop
 40011e0:	04009c0c 	streq	r9, [r0], #-3084	; 0xc0c

040011e4 <rtc_read_osc32con1>:
 40011e4:	b508      	push	{r3, lr}
 40011e6:	f7ff fff3 	bl	40011d0 <rtc_reload>
 40011ea:	4b02      	ldr	r3, [pc, #8]	; (40011f4 <rtc_read_osc32con1+0x10>)
 40011ec:	681b      	ldr	r3, [r3, #0]
 40011ee:	6c58      	ldr	r0, [r3, #68]	; 0x44
 40011f0:	bd08      	pop	{r3, pc}
 40011f2:	bf00      	nop
 40011f4:	04009c0c 	streq	r9, [r0], #-3084	; 0xc0c

040011f8 <rtc_lpd_init>:
 40011f8:	b538      	push	{r3, r4, r5, lr}
 40011fa:	4c0c      	ldr	r4, [pc, #48]	; (400122c <rtc_lpd_init+0x34>)
 40011fc:	6823      	ldr	r3, [r4, #0]
 40011fe:	2502      	movs	r5, #2
 4001200:	f883 5034 	strb.w	r5, [r3, #52]	; 0x34
 4001204:	f7ff ffc8 	bl	4001198 <rtc_write_trigger_wait>
 4001208:	6823      	ldr	r3, [r4, #0]
 400120a:	220a      	movs	r2, #10
 400120c:	f883 2034 	strb.w	r2, [r3, #52]	; 0x34
 4001210:	f7ff ffc2 	bl	4001198 <rtc_write_trigger_wait>
 4001214:	f44f 707a 	mov.w	r0, #1000	; 0x3e8
 4001218:	f007 fce8 	bl	4008bec <hal_gpt_delay_us>
 400121c:	6823      	ldr	r3, [r4, #0]
 400121e:	f883 5034 	strb.w	r5, [r3, #52]	; 0x34
 4001222:	f7ff ffb9 	bl	4001198 <rtc_write_trigger_wait>
 4001226:	6823      	ldr	r3, [r4, #0]
 4001228:	6b5b      	ldr	r3, [r3, #52]	; 0x34
 400122a:	bd38      	pop	{r3, r4, r5, pc}
 400122c:	04009c0c 	streq	r9, [r0], #-3084	; 0xc0c

04001230 <f32k_measure_clock>:
 4001230:	b5f8      	push	{r3, r4, r5, r6, r7, lr}
 4001232:	4c15      	ldr	r4, [pc, #84]	; (4001288 <f32k_measure_clock+0x58>)
 4001234:	6823      	ldr	r3, [r4, #0]
 4001236:	4615      	mov	r5, r2
 4001238:	681a      	ldr	r2, [r3, #0]
 400123a:	f442 4240 	orr.w	r2, r2, #49152	; 0xc000
 400123e:	601a      	str	r2, [r3, #0]
 4001240:	4606      	mov	r6, r0
 4001242:	f44f 707a 	mov.w	r0, #1000	; 0x3e8
 4001246:	460f      	mov	r7, r1
 4001248:	f007 fcd0 	bl	4008bec <hal_gpt_delay_us>
 400124c:	6823      	ldr	r3, [r4, #0]
 400124e:	685a      	ldr	r2, [r3, #4]
 4001250:	f412 4200 	ands.w	r2, r2, #32768	; 0x8000
 4001254:	d1fb      	bne.n	400124e <f32k_measure_clock+0x1e>
 4001256:	4b0d      	ldr	r3, [pc, #52]	; (400128c <f32k_measure_clock+0x5c>)
 4001258:	ea47 2606 	orr.w	r6, r7, r6, lsl #8
 400125c:	601a      	str	r2, [r3, #0]
 400125e:	601e      	str	r6, [r3, #0]
 4001260:	6823      	ldr	r3, [r4, #0]
 4001262:	609a      	str	r2, [r3, #8]
 4001264:	f445 4200 	orr.w	r2, r5, #32768	; 0x8000
 4001268:	601a      	str	r2, [r3, #0]
 400126a:	f44f 707a 	mov.w	r0, #1000	; 0x3e8
 400126e:	f007 fcbd 	bl	4008bec <hal_gpt_delay_us>
 4001272:	6823      	ldr	r3, [r4, #0]
 4001274:	685a      	ldr	r2, [r3, #4]
 4001276:	0412      	lsls	r2, r2, #16
 4001278:	d4fc      	bmi.n	4001274 <f32k_measure_clock+0x44>
 400127a:	68d8      	ldr	r0, [r3, #12]
 400127c:	4b04      	ldr	r3, [pc, #16]	; (4001290 <f32k_measure_clock+0x60>)
 400127e:	fb05 3303 	mla	r3, r5, r3, r3
 4001282:	fbb3 f0f0 	udiv	r0, r3, r0
 4001286:	bdf8      	pop	{r3, r4, r5, r6, r7, pc}
 4001288:	04009c10 	streq	r9, [r0], #-3088	; 0xc10
 400128c:	a2020224 	andge	r0, r2, #36, 4	; 0x40000002
 4001290:	018cba80 	orreq	fp, ip, r0, lsl #21

04001294 <hal_rtc_get_time>:
 4001294:	b5f0      	push	{r4, r5, r6, r7, lr}
 4001296:	4b12      	ldr	r3, [pc, #72]	; (40012e0 <hal_rtc_get_time+0x4c>)
 4001298:	681b      	ldr	r3, [r3, #0]
 400129a:	6b9e      	ldr	r6, [r3, #56]	; 0x38
 400129c:	6a1a      	ldr	r2, [r3, #32]
 400129e:	7182      	strb	r2, [r0, #6]
 40012a0:	69dd      	ldr	r5, [r3, #28]
 40012a2:	699c      	ldr	r4, [r3, #24]
 40012a4:	6959      	ldr	r1, [r3, #20]
 40012a6:	6b9a      	ldr	r2, [r3, #56]	; 0x38
 40012a8:	f3c6 060e 	ubfx	r6, r6, #0, #15
 40012ac:	f3c2 070e 	ubfx	r7, r2, #0, #15
 40012b0:	42b7      	cmp	r7, r6
 40012b2:	dbf2      	blt.n	400129a <hal_rtc_get_time+0x6>
 40012b4:	f005 0307 	and.w	r3, r5, #7
 40012b8:	3b01      	subs	r3, #1
 40012ba:	7143      	strb	r3, [r0, #5]
 40012bc:	f004 031f 	and.w	r3, r4, #31
 40012c0:	7083      	strb	r3, [r0, #2]
 40012c2:	f3c5 2503 	ubfx	r5, r5, #8, #4
 40012c6:	f3c1 2305 	ubfx	r3, r1, #8, #6
 40012ca:	f3c4 2404 	ubfx	r4, r4, #8, #5
 40012ce:	f001 013f 	and.w	r1, r1, #63	; 0x3f
 40012d2:	7105      	strb	r5, [r0, #4]
 40012d4:	70c4      	strb	r4, [r0, #3]
 40012d6:	7043      	strb	r3, [r0, #1]
 40012d8:	7001      	strb	r1, [r0, #0]
 40012da:	8102      	strh	r2, [r0, #8]
 40012dc:	2000      	movs	r0, #0
 40012de:	bdf0      	pop	{r4, r5, r6, r7, pc}
 40012e0:	04009c0c 	streq	r9, [r0], #-3084	; 0xc0c

040012e4 <rtc_set_data>:
 40012e4:	2803      	cmp	r0, #3
 40012e6:	e92d 43f8 	stmdb	sp!, {r3, r4, r5, r6, r7, r8, r9, lr}
 40012ea:	4605      	mov	r5, r0
 40012ec:	460e      	mov	r6, r1
 40012ee:	4617      	mov	r7, r2
 40012f0:	4698      	mov	r8, r3
 40012f2:	d81b      	bhi.n	400132c <rtc_set_data+0x48>
 40012f4:	1883      	adds	r3, r0, r2
 40012f6:	2b04      	cmp	r3, #4
 40012f8:	d818      	bhi.n	400132c <rtc_set_data+0x48>
 40012fa:	b1b9      	cbz	r1, 400132c <rtc_set_data+0x48>
 40012fc:	4b0d      	ldr	r3, [pc, #52]	; (4001334 <rtc_set_data+0x50>)
 40012fe:	2400      	movs	r4, #0
 4001300:	eb03 0980 	add.w	r9, r3, r0, lsl #2
 4001304:	b2a3      	uxth	r3, r4
 4001306:	42bb      	cmp	r3, r7
 4001308:	d20e      	bcs.n	4001328 <rtc_set_data+0x44>
 400130a:	5d32      	ldrb	r2, [r6, r4]
 400130c:	f1b8 0f00 	cmp.w	r8, #0
 4001310:	d005      	beq.n	400131e <rtc_set_data+0x3a>
 4001312:	f859 1024 	ldr.w	r1, [r9, r4, lsl #2]
 4001316:	700a      	strb	r2, [r1, #0]
 4001318:	f7ff ff3e 	bl	4001198 <rtc_write_trigger_wait>
 400131c:	e002      	b.n	4001324 <rtc_set_data+0x40>
 400131e:	4b06      	ldr	r3, [pc, #24]	; (4001338 <rtc_set_data+0x54>)
 4001320:	442b      	add	r3, r5
 4001322:	551a      	strb	r2, [r3, r4]
 4001324:	3401      	adds	r4, #1
 4001326:	e7ed      	b.n	4001304 <rtc_set_data+0x20>
 4001328:	2000      	movs	r0, #0
 400132a:	e000      	b.n	400132e <rtc_set_data+0x4a>
 400132c:	20ff      	movs	r0, #255	; 0xff
 400132e:	b240      	sxtb	r0, r0
 4001330:	e8bd 83f8 	ldmia.w	sp!, {r3, r4, r5, r6, r7, r8, r9, pc}
 4001334:	04005954 	streq	r5, [r0], #-2388	; 0x954
 4001338:	00000457 	andeq	r0, r0, r7, asr r4

0400133c <hal_rtc_set_data>:
 400133c:	b508      	push	{r3, lr}
 400133e:	4b04      	ldr	r3, [pc, #16]	; (4001350 <hal_rtc_set_data+0x14>)
 4001340:	781b      	ldrb	r3, [r3, #0]
 4001342:	f083 0301 	eor.w	r3, r3, #1
 4001346:	f7ff ffcd 	bl	40012e4 <rtc_set_data>
 400134a:	2000      	movs	r0, #0
 400134c:	bd08      	pop	{r3, pc}
 400134e:	bf00      	nop
 4001350:	0000045c 	andeq	r0, r0, ip, asr r4

04001354 <rtc_get_data>:
 4001354:	2803      	cmp	r0, #3
 4001356:	b570      	push	{r4, r5, r6, lr}
 4001358:	d817      	bhi.n	400138a <rtc_get_data+0x36>
 400135a:	1884      	adds	r4, r0, r2
 400135c:	2c04      	cmp	r4, #4
 400135e:	d814      	bhi.n	400138a <rtc_get_data+0x36>
 4001360:	b199      	cbz	r1, 400138a <rtc_get_data+0x36>
 4001362:	4e0b      	ldr	r6, [pc, #44]	; (4001390 <rtc_get_data+0x3c>)
 4001364:	2400      	movs	r4, #0
 4001366:	eb06 0680 	add.w	r6, r6, r0, lsl #2
 400136a:	b2a5      	uxth	r5, r4
 400136c:	4295      	cmp	r5, r2
 400136e:	d20a      	bcs.n	4001386 <rtc_get_data+0x32>
 4001370:	b11b      	cbz	r3, 400137a <rtc_get_data+0x26>
 4001372:	f856 5024 	ldr.w	r5, [r6, r4, lsl #2]
 4001376:	782d      	ldrb	r5, [r5, #0]
 4001378:	e002      	b.n	4001380 <rtc_get_data+0x2c>
 400137a:	4d06      	ldr	r5, [pc, #24]	; (4001394 <rtc_get_data+0x40>)
 400137c:	4405      	add	r5, r0
 400137e:	5d2d      	ldrb	r5, [r5, r4]
 4001380:	550d      	strb	r5, [r1, r4]
 4001382:	3401      	adds	r4, #1
 4001384:	e7f1      	b.n	400136a <rtc_get_data+0x16>
 4001386:	2000      	movs	r0, #0
 4001388:	e000      	b.n	400138c <rtc_get_data+0x38>
 400138a:	20ff      	movs	r0, #255	; 0xff
 400138c:	b240      	sxtb	r0, r0
 400138e:	bd70      	pop	{r4, r5, r6, pc}
 4001390:	04005954 	streq	r5, [r0], #-2388	; 0x954
 4001394:	00000457 	andeq	r0, r0, r7, asr r4

04001398 <hal_rtc_get_data>:
 4001398:	b508      	push	{r3, lr}
 400139a:	4b04      	ldr	r3, [pc, #16]	; (40013ac <hal_rtc_get_data+0x14>)
 400139c:	781b      	ldrb	r3, [r3, #0]
 400139e:	f083 0301 	eor.w	r3, r3, #1
 40013a2:	f7ff ffd7 	bl	4001354 <rtc_get_data>
 40013a6:	2000      	movs	r0, #0
 40013a8:	bd08      	pop	{r3, pc}
 40013aa:	bf00      	nop
 40013ac:	0000045c 	andeq	r0, r0, ip, asr r4

040013b0 <hal_rtc_retention_sram_config>:
 40013b0:	2902      	cmp	r1, #2
 40013b2:	e92d 4ff7 	stmdb	sp!, {r0, r1, r2, r4, r5, r6, r7, r8, r9, sl, fp, lr}
 40013b6:	4607      	mov	r7, r0
 40013b8:	4688      	mov	r8, r1
 40013ba:	f200 8100 	bhi.w	40015be <hal_rtc_retention_sram_config+0x20e>
 40013be:	280f      	cmp	r0, #15
 40013c0:	f200 80fd 	bhi.w	40015be <hal_rtc_retention_sram_config+0x20e>
 40013c4:	2800      	cmp	r0, #0
 40013c6:	f000 80f8 	beq.w	40015ba <hal_rtc_retention_sram_config+0x20a>
 40013ca:	f8df 9200 	ldr.w	r9, [pc, #512]	; 40015cc <hal_rtc_retention_sram_config+0x21c>
 40013ce:	f7ff feff 	bl	40011d0 <rtc_reload>
 40013d2:	f8d9 3000 	ldr.w	r3, [r9]
 40013d6:	6cde      	ldr	r6, [r3, #76]	; 0x4c
 40013d8:	f7ff fefa 	bl	40011d0 <rtc_reload>
 40013dc:	f8d9 3000 	ldr.w	r3, [r9]
 40013e0:	6c9b      	ldr	r3, [r3, #72]	; 0x48
 40013e2:	f1b8 0f01 	cmp.w	r8, #1
 40013e6:	f3c3 2907 	ubfx	r9, r3, #8, #8
 40013ea:	b2f4      	uxtb	r4, r6
 40013ec:	f3c6 2507 	ubfx	r5, r6, #8, #8
 40013f0:	f049 0930 	orr.w	r9, r9, #48	; 0x30
 40013f4:	d042      	beq.n	400147c <hal_rtc_retention_sram_config+0xcc>
 40013f6:	f1b8 0f02 	cmp.w	r8, #2
 40013fa:	f000 808e 	beq.w	400151a <hal_rtc_retention_sram_config+0x16a>
 40013fe:	2c0f      	cmp	r4, #15
 4001400:	d109      	bne.n	4001416 <hal_rtc_retention_sram_config+0x66>
 4001402:	4b71      	ldr	r3, [pc, #452]	; (40015c8 <hal_rtc_retention_sram_config+0x218>)
 4001404:	681a      	ldr	r2, [r3, #0]
 4001406:	f042 0201 	orr.w	r2, r2, #1
 400140a:	601a      	str	r2, [r3, #0]
 400140c:	f7ff feb0 	bl	4001170 <rtc_set_pmu_ao_latch>
 4001410:	2001      	movs	r0, #1
 4001412:	f007 fbeb 	bl	4008bec <hal_gpt_delay_us>
 4001416:	4648      	mov	r0, r9
 4001418:	2101      	movs	r1, #1
 400141a:	f7ff fe1d 	bl	4001058 <rtc_write_osc32con2>
 400141e:	f04f 0800 	mov.w	r8, #0
 4001422:	2101      	movs	r1, #1
 4001424:	fa01 f308 	lsl.w	r3, r1, r8
 4001428:	423b      	tst	r3, r7
 400142a:	d010      	beq.n	400144e <hal_rtc_retention_sram_config+0x9e>
 400142c:	4233      	tst	r3, r6
 400142e:	d004      	beq.n	400143a <hal_rtc_retention_sram_config+0x8a>
 4001430:	ea24 0403 	bic.w	r4, r4, r3
 4001434:	4620      	mov	r0, r4
 4001436:	2100      	movs	r1, #0
 4001438:	e007      	b.n	400144a <hal_rtc_retention_sram_config+0x9a>
 400143a:	f44f 7280 	mov.w	r2, #256	; 0x100
 400143e:	fa02 f208 	lsl.w	r2, r2, r8
 4001442:	4232      	tst	r2, r6
 4001444:	d103      	bne.n	400144e <hal_rtc_retention_sram_config+0x9e>
 4001446:	431d      	orrs	r5, r3
 4001448:	4628      	mov	r0, r5
 400144a:	f7ff fe2d 	bl	40010a8 <rtc_write_sramcon>
 400144e:	f108 0801 	add.w	r8, r8, #1
 4001452:	f1b8 0f04 	cmp.w	r8, #4
 4001456:	d1e4      	bne.n	4001422 <hal_rtc_retention_sram_config+0x72>
 4001458:	ea49 0907 	orr.w	r9, r9, r7
 400145c:	2001      	movs	r0, #1
 400145e:	f007 fbc5 	bl	4008bec <hal_gpt_delay_us>
 4001462:	4648      	mov	r0, r9
 4001464:	2101      	movs	r1, #1
 4001466:	f7ff fdf7 	bl	4001058 <rtc_write_osc32con2>
 400146a:	2001      	movs	r0, #1
 400146c:	f007 fbbe 	bl	4008bec <hal_gpt_delay_us>
 4001470:	f029 0030 	bic.w	r0, r9, #48	; 0x30
 4001474:	2101      	movs	r1, #1
 4001476:	f7ff fdef 	bl	4001058 <rtc_write_osc32con2>
 400147a:	e09e      	b.n	40015ba <hal_rtc_retention_sram_config+0x20a>
 400147c:	2c0f      	cmp	r4, #15
 400147e:	d106      	bne.n	400148e <hal_rtc_retention_sram_config+0xde>
 4001480:	4b51      	ldr	r3, [pc, #324]	; (40015c8 <hal_rtc_retention_sram_config+0x218>)
 4001482:	681a      	ldr	r2, [r3, #0]
 4001484:	f042 0201 	orr.w	r2, r2, #1
 4001488:	601a      	str	r2, [r3, #0]
 400148a:	f7ff fe71 	bl	4001170 <rtc_set_pmu_ao_latch>
 400148e:	4648      	mov	r0, r9
 4001490:	2101      	movs	r1, #1
 4001492:	f7ff fde1 	bl	4001058 <rtc_write_osc32con2>
 4001496:	f04f 0800 	mov.w	r8, #0
 400149a:	46ca      	mov	sl, r9
 400149c:	46c3      	mov	fp, r8
 400149e:	f04f 0901 	mov.w	r9, #1
 40014a2:	fa09 f908 	lsl.w	r9, r9, r8
 40014a6:	ea19 0f06 	tst.w	r9, r6
 40014aa:	d009      	beq.n	40014c0 <hal_rtc_retention_sram_config+0x110>
 40014ac:	ea19 0f07 	tst.w	r9, r7
 40014b0:	d028      	beq.n	4001504 <hal_rtc_retention_sram_config+0x154>
 40014b2:	ea24 0409 	bic.w	r4, r4, r9
 40014b6:	4620      	mov	r0, r4
 40014b8:	2100      	movs	r1, #0
 40014ba:	f7ff fdf5 	bl	40010a8 <rtc_write_sramcon>
 40014be:	e00d      	b.n	40014dc <hal_rtc_retention_sram_config+0x12c>
 40014c0:	f44f 7380 	mov.w	r3, #256	; 0x100
 40014c4:	fa03 f308 	lsl.w	r3, r3, r8
 40014c8:	4233      	tst	r3, r6
 40014ca:	d01b      	beq.n	4001504 <hal_rtc_retention_sram_config+0x154>
 40014cc:	ea19 0f07 	tst.w	r9, r7
 40014d0:	d104      	bne.n	40014dc <hal_rtc_retention_sram_config+0x12c>
 40014d2:	f10b 0b01 	add.w	fp, fp, #1
 40014d6:	fa5f fb8b 	uxtb.w	fp, fp
 40014da:	e013      	b.n	4001504 <hal_rtc_retention_sram_config+0x154>
 40014dc:	ea19 0f07 	tst.w	r9, r7
 40014e0:	d010      	beq.n	4001504 <hal_rtc_retention_sram_config+0x154>
 40014e2:	ea6f 0909 	mvn.w	r9, r9
 40014e6:	ea0a 0a09 	and.w	sl, sl, r9
 40014ea:	2101      	movs	r1, #1
 40014ec:	4650      	mov	r0, sl
 40014ee:	f7ff fdb3 	bl	4001058 <rtc_write_osc32con2>
 40014f2:	ea05 0509 	and.w	r5, r5, r9
 40014f6:	2001      	movs	r0, #1
 40014f8:	f007 fb78 	bl	4008bec <hal_gpt_delay_us>
 40014fc:	4628      	mov	r0, r5
 40014fe:	2101      	movs	r1, #1
 4001500:	f7ff fdd2 	bl	40010a8 <rtc_write_sramcon>
 4001504:	f108 0801 	add.w	r8, r8, #1
 4001508:	f1b8 0f04 	cmp.w	r8, #4
 400150c:	d1c7      	bne.n	400149e <hal_rtc_retention_sram_config+0xee>
 400150e:	f1bb 0f00 	cmp.w	fp, #0
 4001512:	d052      	beq.n	40015ba <hal_rtc_retention_sram_config+0x20a>
 4001514:	f02a 0030 	bic.w	r0, sl, #48	; 0x30
 4001518:	e049      	b.n	40015ae <hal_rtc_retention_sram_config+0x1fe>
 400151a:	4648      	mov	r0, r9
 400151c:	2101      	movs	r1, #1
 400151e:	f04f 0800 	mov.w	r8, #0
 4001522:	f7ff fd99 	bl	4001058 <rtc_write_osc32con2>
 4001526:	4643      	mov	r3, r8
 4001528:	f04f 0b01 	mov.w	fp, #1
 400152c:	fa0b fa08 	lsl.w	sl, fp, r8
 4001530:	ea1a 0f06 	tst.w	sl, r6
 4001534:	d129      	bne.n	400158a <hal_rtc_retention_sram_config+0x1da>
 4001536:	f44f 7280 	mov.w	r2, #256	; 0x100
 400153a:	fa02 f208 	lsl.w	r2, r2, r8
 400153e:	4232      	tst	r2, r6
 4001540:	ea0a 0207 	and.w	r2, sl, r7
 4001544:	d114      	bne.n	4001570 <hal_rtc_retention_sram_config+0x1c0>
 4001546:	b302      	cbz	r2, 400158a <hal_rtc_retention_sram_config+0x1da>
 4001548:	ea45 050a 	orr.w	r5, r5, sl
 400154c:	4628      	mov	r0, r5
 400154e:	4659      	mov	r1, fp
 4001550:	ea49 090a 	orr.w	r9, r9, sl
 4001554:	9201      	str	r2, [sp, #4]
 4001556:	9300      	str	r3, [sp, #0]
 4001558:	f7ff fda6 	bl	40010a8 <rtc_write_sramcon>
 400155c:	4648      	mov	r0, r9
 400155e:	4659      	mov	r1, fp
 4001560:	f7ff fd7a 	bl	4001058 <rtc_write_osc32con2>
 4001564:	4658      	mov	r0, fp
 4001566:	f007 fb41 	bl	4008bec <hal_gpt_delay_us>
 400156a:	9a01      	ldr	r2, [sp, #4]
 400156c:	9b00      	ldr	r3, [sp, #0]
 400156e:	e003      	b.n	4001578 <hal_rtc_retention_sram_config+0x1c8>
 4001570:	b912      	cbnz	r2, 4001578 <hal_rtc_retention_sram_config+0x1c8>
 4001572:	3301      	adds	r3, #1
 4001574:	b2db      	uxtb	r3, r3
 4001576:	e008      	b.n	400158a <hal_rtc_retention_sram_config+0x1da>
 4001578:	b13a      	cbz	r2, 400158a <hal_rtc_retention_sram_config+0x1da>
 400157a:	ea44 040a 	orr.w	r4, r4, sl
 400157e:	4620      	mov	r0, r4
 4001580:	2100      	movs	r1, #0
 4001582:	9300      	str	r3, [sp, #0]
 4001584:	f7ff fd90 	bl	40010a8 <rtc_write_sramcon>
 4001588:	9b00      	ldr	r3, [sp, #0]
 400158a:	f108 0801 	add.w	r8, r8, #1
 400158e:	f1b8 0f04 	cmp.w	r8, #4
 4001592:	d1c9      	bne.n	4001528 <hal_rtc_retention_sram_config+0x178>
 4001594:	2c0f      	cmp	r4, #15
 4001596:	d107      	bne.n	40015a8 <hal_rtc_retention_sram_config+0x1f8>
 4001598:	4b0b      	ldr	r3, [pc, #44]	; (40015c8 <hal_rtc_retention_sram_config+0x218>)
 400159a:	681a      	ldr	r2, [r3, #0]
 400159c:	f022 0201 	bic.w	r2, r2, #1
 40015a0:	601a      	str	r2, [r3, #0]
 40015a2:	f7ff fde5 	bl	4001170 <rtc_set_pmu_ao_latch>
 40015a6:	e005      	b.n	40015b4 <hal_rtc_retention_sram_config+0x204>
 40015a8:	b13b      	cbz	r3, 40015ba <hal_rtc_retention_sram_config+0x20a>
 40015aa:	f029 0030 	bic.w	r0, r9, #48	; 0x30
 40015ae:	2101      	movs	r1, #1
 40015b0:	f7ff fd52 	bl	4001058 <rtc_write_osc32con2>
 40015b4:	2001      	movs	r0, #1
 40015b6:	f007 fb19 	bl	4008bec <hal_gpt_delay_us>
 40015ba:	2000      	movs	r0, #0
 40015bc:	e000      	b.n	40015c0 <hal_rtc_retention_sram_config+0x210>
 40015be:	20ff      	movs	r0, #255	; 0xff
 40015c0:	b240      	sxtb	r0, r0
 40015c2:	b003      	add	sp, #12
 40015c4:	e8bd 8ff0 	ldmia.w	sp!, {r4, r5, r6, r7, r8, r9, sl, fp, pc}
 40015c8:	a207080c 	andge	r0, r7, #12, 16	; 0xc0000
 40015cc:	04009c0c 	streq	r9, [r0], #-3084	; 0xc0c

040015d0 <rtc_power_on_result>:
 40015d0:	b508      	push	{r3, lr}
 40015d2:	f7ff fdfd 	bl	40011d0 <rtc_reload>
 40015d6:	4b03      	ldr	r3, [pc, #12]	; (40015e4 <rtc_power_on_result+0x14>)
 40015d8:	681b      	ldr	r3, [r3, #0]
 40015da:	f8d3 0094 	ldr.w	r0, [r3, #148]	; 0x94
 40015de:	f3c0 20c2 	ubfx	r0, r0, #11, #3
 40015e2:	bd08      	pop	{r3, pc}
 40015e4:	04009c0c 	streq	r9, [r0], #-3084	; 0xc0c

040015e8 <hal_rtc_exit_retention_mode>:
 40015e8:	e92d 43f7 	stmdb	sp!, {r0, r1, r2, r4, r5, r6, r7, r8, r9, lr}
 40015ec:	f7ff fff0 	bl	40015d0 <rtc_power_on_result>
 40015f0:	2801      	cmp	r0, #1
 40015f2:	4f75      	ldr	r7, [pc, #468]	; (40017c8 <hal_rtc_exit_retention_mode+0x1e0>)
 40015f4:	d102      	bne.n	40015fc <hal_rtc_exit_retention_mode+0x14>
 40015f6:	4b75      	ldr	r3, [pc, #468]	; (40017cc <hal_rtc_exit_retention_mode+0x1e4>)
 40015f8:	7018      	strb	r0, [r3, #0]
 40015fa:	e003      	b.n	4001604 <hal_rtc_exit_retention_mode+0x1c>
 40015fc:	2802      	cmp	r0, #2
 40015fe:	bf04      	itt	eq
 4001600:	2301      	moveq	r3, #1
 4001602:	703b      	strbeq	r3, [r7, #0]
 4001604:	783b      	ldrb	r3, [r7, #0]
 4001606:	b923      	cbnz	r3, 4001612 <hal_rtc_exit_retention_mode+0x2a>
 4001608:	4b70      	ldr	r3, [pc, #448]	; (40017cc <hal_rtc_exit_retention_mode+0x1e4>)
 400160a:	781b      	ldrb	r3, [r3, #0]
 400160c:	2b00      	cmp	r3, #0
 400160e:	f000 8087 	beq.w	4001720 <hal_rtc_exit_retention_mode+0x138>
 4001612:	4b6f      	ldr	r3, [pc, #444]	; (40017d0 <hal_rtc_exit_retention_mode+0x1e8>)
 4001614:	781b      	ldrb	r3, [r3, #0]
 4001616:	069b      	lsls	r3, r3, #26
 4001618:	f140 8082 	bpl.w	4001720 <hal_rtc_exit_retention_mode+0x138>
 400161c:	4b6d      	ldr	r3, [pc, #436]	; (40017d4 <hal_rtc_exit_retention_mode+0x1ec>)
 400161e:	881c      	ldrh	r4, [r3, #0]
 4001620:	f3c4 040a 	ubfx	r4, r4, #0, #11
 4001624:	2c00      	cmp	r4, #0
 4001626:	d1f9      	bne.n	400161c <hal_rtc_exit_retention_mode+0x34>
 4001628:	4621      	mov	r1, r4
 400162a:	4620      	mov	r0, r4
 400162c:	f7ff fcd4 	bl	4000fd8 <rtc_write_osc32con0>
 4001630:	20c8      	movs	r0, #200	; 0xc8
 4001632:	f007 fadb 	bl	4008bec <hal_gpt_delay_us>
 4001636:	4b68      	ldr	r3, [pc, #416]	; (40017d8 <hal_rtc_exit_retention_mode+0x1f0>)
 4001638:	681b      	ldr	r3, [r3, #0]
 400163a:	671c      	str	r4, [r3, #112]	; 0x70
 400163c:	f7ff fdac 	bl	4001198 <rtc_write_trigger_wait>
 4001640:	f7ff fdd0 	bl	40011e4 <rtc_read_osc32con1>
 4001644:	f020 001f 	bic.w	r0, r0, #31
 4001648:	f7ff fcee 	bl	4001028 <rtc_write_osc32con1>
 400164c:	2004      	movs	r0, #4
 400164e:	2101      	movs	r1, #1
 4001650:	2263      	movs	r2, #99	; 0x63
 4001652:	f7ff fded 	bl	4001230 <f32k_measure_clock>
 4001656:	f5b0 4f00 	cmp.w	r0, #32768	; 0x8000
 400165a:	4606      	mov	r6, r0
 400165c:	d941      	bls.n	40016e2 <hal_rtc_exit_retention_mode+0xfa>
 400165e:	f7ff fdc1 	bl	40011e4 <rtc_read_osc32con1>
 4001662:	f040 001f 	orr.w	r0, r0, #31
 4001666:	f7ff fcdf 	bl	4001028 <rtc_write_osc32con1>
 400166a:	2004      	movs	r0, #4
 400166c:	2101      	movs	r1, #1
 400166e:	2263      	movs	r2, #99	; 0x63
 4001670:	f7ff fdde 	bl	4001230 <f32k_measure_clock>
 4001674:	f5b0 4f00 	cmp.w	r0, #32768	; 0x8000
 4001678:	4680      	mov	r8, r0
 400167a:	d232      	bcs.n	40016e2 <hal_rtc_exit_retention_mode+0xfa>
 400167c:	251f      	movs	r5, #31
 400167e:	1b2b      	subs	r3, r5, r4
 4001680:	2b01      	cmp	r3, #1
 4001682:	d91b      	bls.n	40016bc <hal_rtc_exit_retention_mode+0xd4>
 4001684:	f7ff fdae 	bl	40011e4 <rtc_read_osc32con1>
 4001688:	eb05 0904 	add.w	r9, r5, r4
 400168c:	ea4f 0959 	mov.w	r9, r9, lsr #1
 4001690:	f020 001f 	bic.w	r0, r0, #31
 4001694:	ea40 0009 	orr.w	r0, r0, r9
 4001698:	f7ff fcc6 	bl	4001028 <rtc_write_osc32con1>
 400169c:	2004      	movs	r0, #4
 400169e:	2101      	movs	r1, #1
 40016a0:	2263      	movs	r2, #99	; 0x63
 40016a2:	f7ff fdc5 	bl	4001230 <f32k_measure_clock>
 40016a6:	f5b0 4f00 	cmp.w	r0, #32768	; 0x8000
 40016aa:	d804      	bhi.n	40016b6 <hal_rtc_exit_retention_mode+0xce>
 40016ac:	d019      	beq.n	40016e2 <hal_rtc_exit_retention_mode+0xfa>
 40016ae:	4680      	mov	r8, r0
 40016b0:	464d      	mov	r5, r9
 40016b2:	4630      	mov	r0, r6
 40016b4:	e000      	b.n	40016b8 <hal_rtc_exit_retention_mode+0xd0>
 40016b6:	464c      	mov	r4, r9
 40016b8:	4606      	mov	r6, r0
 40016ba:	e7e0      	b.n	400167e <hal_rtc_exit_retention_mode+0x96>
 40016bc:	f5c8 4800 	rsb	r8, r8, #32768	; 0x8000
 40016c0:	f5a6 4600 	sub.w	r6, r6, #32768	; 0x8000
 40016c4:	45b0      	cmp	r8, r6
 40016c6:	d205      	bcs.n	40016d4 <hal_rtc_exit_retention_mode+0xec>
 40016c8:	f7ff fd8c 	bl	40011e4 <rtc_read_osc32con1>
 40016cc:	f020 001f 	bic.w	r0, r0, #31
 40016d0:	4328      	orrs	r0, r5
 40016d2:	e004      	b.n	40016de <hal_rtc_exit_retention_mode+0xf6>
 40016d4:	f7ff fd86 	bl	40011e4 <rtc_read_osc32con1>
 40016d8:	f020 001f 	bic.w	r0, r0, #31
 40016dc:	4320      	orrs	r0, r4
 40016de:	f7ff fca3 	bl	4001028 <rtc_write_osc32con1>
 40016e2:	2004      	movs	r0, #4
 40016e4:	2101      	movs	r1, #1
 40016e6:	2263      	movs	r2, #99	; 0x63
 40016e8:	f7ff fda2 	bl	4001230 <f32k_measure_clock>
 40016ec:	f5c0 4000 	rsb	r0, r0, #32768	; 0x8000
 40016f0:	b280      	uxth	r0, r0
 40016f2:	b203      	sxth	r3, r0
 40016f4:	f5b3 5f80 	cmp.w	r3, #4096	; 0x1000
 40016f8:	db02      	blt.n	4001700 <hal_rtc_exit_retention_mode+0x118>
 40016fa:	f640 73ff 	movw	r3, #4095	; 0xfff
 40016fe:	e007      	b.n	4001710 <hal_rtc_exit_retention_mode+0x128>
 4001700:	f513 5f80 	cmn.w	r3, #4096	; 0x1000
 4001704:	db02      	blt.n	400170c <hal_rtc_exit_retention_mode+0x124>
 4001706:	f8ad 0006 	strh.w	r0, [sp, #6]
 400170a:	e003      	b.n	4001714 <hal_rtc_exit_retention_mode+0x12c>
 400170c:	f44f 4370 	mov.w	r3, #61440	; 0xf000
 4001710:	f8ad 3006 	strh.w	r3, [sp, #6]
 4001714:	2000      	movs	r0, #0
 4001716:	f10d 0106 	add.w	r1, sp, #6
 400171a:	2202      	movs	r2, #2
 400171c:	f7ff fe0e 	bl	400133c <hal_rtc_set_data>
 4001720:	783b      	ldrb	r3, [r7, #0]
 4001722:	b333      	cbz	r3, 4001772 <hal_rtc_exit_retention_mode+0x18a>
 4001724:	4c2c      	ldr	r4, [pc, #176]	; (40017d8 <hal_rtc_exit_retention_mode+0x1f0>)
 4001726:	f7ff fd41 	bl	40011ac <rtc_unlock_PROT>
 400172a:	6823      	ldr	r3, [r4, #0]
 400172c:	f64e 6220 	movw	r2, #60960	; 0xee20
 4001730:	601a      	str	r2, [r3, #0]
 4001732:	f7ff fd31 	bl	4001198 <rtc_write_trigger_wait>
 4001736:	203f      	movs	r0, #63	; 0x3f
 4001738:	2101      	movs	r1, #1
 400173a:	f7ff fc8d 	bl	4001058 <rtc_write_osc32con2>
 400173e:	f640 700f 	movw	r0, #3855	; 0xf0f
 4001742:	2102      	movs	r1, #2
 4001744:	f7ff fcb0 	bl	40010a8 <rtc_write_sramcon>
 4001748:	6823      	ldr	r3, [r4, #0]
 400174a:	f8d3 2094 	ldr.w	r2, [r3, #148]	; 0x94
 400174e:	f022 0201 	bic.w	r2, r2, #1
 4001752:	f8c3 2094 	str.w	r2, [r3, #148]	; 0x94
 4001756:	f64c 0208 	movw	r2, #51208	; 0xc808
 400175a:	601a      	str	r2, [r3, #0]
 400175c:	f7ff fd1c 	bl	4001198 <rtc_write_trigger_wait>
 4001760:	6823      	ldr	r3, [r4, #0]
 4001762:	f643 1202 	movw	r2, #14594	; 0x3902
 4001766:	601a      	str	r2, [r3, #0]
 4001768:	f7ff fd16 	bl	4001198 <rtc_write_trigger_wait>
 400176c:	4b16      	ldr	r3, [pc, #88]	; (40017c8 <hal_rtc_exit_retention_mode+0x1e0>)
 400176e:	2200      	movs	r2, #0
 4001770:	701a      	strb	r2, [r3, #0]
 4001772:	4b16      	ldr	r3, [pc, #88]	; (40017cc <hal_rtc_exit_retention_mode+0x1e4>)
 4001774:	781b      	ldrb	r3, [r3, #0]
 4001776:	b303      	cbz	r3, 40017ba <hal_rtc_exit_retention_mode+0x1d2>
 4001778:	4c17      	ldr	r4, [pc, #92]	; (40017d8 <hal_rtc_exit_retention_mode+0x1f0>)
 400177a:	f7ff fd17 	bl	40011ac <rtc_unlock_PROT>
 400177e:	6823      	ldr	r3, [r4, #0]
 4001780:	f64e 6220 	movw	r2, #60960	; 0xee20
 4001784:	601a      	str	r2, [r3, #0]
 4001786:	f7ff fd07 	bl	4001198 <rtc_write_trigger_wait>
 400178a:	6823      	ldr	r3, [r4, #0]
 400178c:	f8d3 2094 	ldr.w	r2, [r3, #148]	; 0x94
 4001790:	f022 0201 	bic.w	r2, r2, #1
 4001794:	f8c3 2094 	str.w	r2, [r3, #148]	; 0x94
 4001798:	f44f 42c8 	mov.w	r2, #25600	; 0x6400
 400179c:	601a      	str	r2, [r3, #0]
 400179e:	f7ff fcfb 	bl	4001198 <rtc_write_trigger_wait>
 40017a2:	6823      	ldr	r3, [r4, #0]
 40017a4:	f64c 0208 	movw	r2, #51208	; 0xc808
 40017a8:	601a      	str	r2, [r3, #0]
 40017aa:	f7ff fcf5 	bl	4001198 <rtc_write_trigger_wait>
 40017ae:	6823      	ldr	r3, [r4, #0]
 40017b0:	f643 1202 	movw	r2, #14594	; 0x3902
 40017b4:	601a      	str	r2, [r3, #0]
 40017b6:	f7ff fcef 	bl	4001198 <rtc_write_trigger_wait>
 40017ba:	2100      	movs	r1, #0
 40017bc:	200f      	movs	r0, #15
 40017be:	f7ff fdf7 	bl	40013b0 <hal_rtc_retention_sram_config>
 40017c2:	b003      	add	sp, #12
 40017c4:	e8bd 83f0 	ldmia.w	sp!, {r4, r5, r6, r7, r8, r9, pc}
 40017c8:	00000455 	andeq	r0, r0, r5, asr r4
 40017cc:	0000045b 	andeq	r0, r0, fp, asr r4
 40017d0:	a2010040 	andge	r0, r1, #64	; 0x40
 40017d4:	a2080038 	andge	r0, r8, #56	; 0x38
 40017d8:	04009c0c 	streq	r9, [r0], #-3084	; 0xc0c

040017dc <rtc_get_second_diff_from_two_time>:
 40017dc:	b538      	push	{r3, r4, r5, lr}
 40017de:	460d      	mov	r5, r1
 40017e0:	f7ff fc8a 	bl	40010f8 <rtc_calendar_time_to_seconds>
 40017e4:	4604      	mov	r4, r0
 40017e6:	4628      	mov	r0, r5
 40017e8:	f7ff fc86 	bl	40010f8 <rtc_calendar_time_to_seconds>
 40017ec:	1b00      	subs	r0, r0, r4
 40017ee:	bd38      	pop	{r3, r4, r5, pc}

040017f0 <rtc_tick_calculation>:
 40017f0:	e92d 41f0 	stmdb	sp!, {r4, r5, r6, r7, r8, lr}
 40017f4:	8907      	ldrh	r7, [r0, #8]
 40017f6:	f8b1 8008 	ldrh.w	r8, [r1, #8]
 40017fa:	4616      	mov	r6, r2
 40017fc:	f3c7 040e 	ubfx	r4, r7, #0, #15
 4001800:	f3c8 050e 	ubfx	r5, r8, #0, #15
 4001804:	f7ff ffea 	bl	40017dc <rtc_get_second_diff_from_two_time>
 4001808:	f5b6 5f80 	cmp.w	r6, #4096	; 0x1000
 400180c:	bf28      	it	cs
 400180e:	f5a6 5600 	subcs.w	r6, r6, #8192	; 0x2000
 4001812:	42a5      	cmp	r5, r4
 4001814:	ea4f 37d7 	mov.w	r7, r7, lsr #15
 4001818:	ea4f 38d8 	mov.w	r8, r8, lsr #15
 400181c:	ea4f 02e6 	mov.w	r2, r6, asr #3
 4001820:	d307      	bcc.n	4001832 <rtc_tick_calculation+0x42>
 4001822:	1b2c      	subs	r4, r5, r4
 4001824:	ebc8 0707 	rsb	r7, r8, r7
 4001828:	fb07 4402 	mla	r4, r7, r2, r4
 400182c:	f5c2 4200 	rsb	r2, r2, #32768	; 0x8000
 4001830:	e00a      	b.n	4001848 <rtc_tick_calculation+0x58>
 4001832:	f505 4500 	add.w	r5, r5, #32768	; 0x8000
 4001836:	ebc7 0708 	rsb	r7, r7, r8
 400183a:	1b2c      	subs	r4, r5, r4
 400183c:	43ff      	mvns	r7, r7
 400183e:	fb07 4402 	mla	r4, r7, r2, r4
 4001842:	3801      	subs	r0, #1
 4001844:	f5c2 4200 	rsb	r2, r2, #32768	; 0x8000
 4001848:	fb00 4002 	mla	r0, r0, r2, r4
 400184c:	e8bd 81f0 	ldmia.w	sp!, {r4, r5, r6, r7, r8, pc}

04001850 <hal_rtc_init>:
 4001850:	e92d 43f0 	stmdb	sp!, {r4, r5, r6, r7, r8, r9, lr}
 4001854:	b087      	sub	sp, #28
 4001856:	f7ff fca9 	bl	40011ac <rtc_unlock_PROT>
 400185a:	f000 fef7 	bl	400264c <chip_is_mt2625E3>
 400185e:	4db4      	ldr	r5, [pc, #720]	; (4001b30 <hal_rtc_init+0x2e0>)
 4001860:	b140      	cbz	r0, 4001874 <hal_rtc_init+0x24>
 4001862:	682b      	ldr	r3, [r5, #0]
 4001864:	f8d3 2094 	ldr.w	r2, [r3, #148]	; 0x94
 4001868:	f042 0280 	orr.w	r2, r2, #128	; 0x80
 400186c:	f8c3 2094 	str.w	r2, [r3, #148]	; 0x94
 4001870:	f7ff fc92 	bl	4001198 <rtc_write_trigger_wait>
 4001874:	ae06      	add	r6, sp, #24
 4001876:	f04f 0900 	mov.w	r9, #0
 400187a:	f7ff fca9 	bl	40011d0 <rtc_reload>
 400187e:	f806 9d0c 	strb.w	r9, [r6, #-12]!
 4001882:	682b      	ldr	r3, [r5, #0]
 4001884:	f8d3 4094 	ldr.w	r4, [r3, #148]	; 0x94
 4001888:	f893 8075 	ldrb.w	r8, [r3, #117]	; 0x75
 400188c:	681f      	ldr	r7, [r3, #0]
 400188e:	fa5f f888 	uxtb.w	r8, r8
 4001892:	2003      	movs	r0, #3
 4001894:	4631      	mov	r1, r6
 4001896:	2201      	movs	r2, #1
 4001898:	f7ff fd7e 	bl	4001398 <hal_rtc_get_data>
 400189c:	f008 0302 	and.w	r3, r8, #2
 40018a0:	f424 5470 	bic.w	r4, r4, #15360	; 0x3c00
 40018a4:	f003 00ff 	and.w	r0, r3, #255	; 0xff
 40018a8:	b91b      	cbnz	r3, 40018b2 <hal_rtc_init+0x62>
 40018aa:	49a2      	ldr	r1, [pc, #648]	; (4001b34 <hal_rtc_init+0x2e4>)
 40018ac:	f000 fb88 	bl	4001fc0 <bl_print>
 40018b0:	e04c      	b.n	400194c <hal_rtc_init+0xfc>
 40018b2:	f017 0810 	ands.w	r8, r7, #16
 40018b6:	d006      	beq.n	40018c6 <hal_rtc_init+0x76>
 40018b8:	4648      	mov	r0, r9
 40018ba:	499f      	ldr	r1, [pc, #636]	; (4001b38 <hal_rtc_init+0x2e8>)
 40018bc:	f000 fb80 	bl	4001fc0 <bl_print>
 40018c0:	f444 6440 	orr.w	r4, r4, #3072	; 0xc00
 40018c4:	e042      	b.n	400194c <hal_rtc_init+0xfc>
 40018c6:	f017 0920 	ands.w	r9, r7, #32
 40018ca:	d020      	beq.n	400190e <hal_rtc_init+0xbe>
 40018cc:	4b9b      	ldr	r3, [pc, #620]	; (4001b3c <hal_rtc_init+0x2ec>)
 40018ce:	681a      	ldr	r2, [r3, #0]
 40018d0:	2a02      	cmp	r2, #2
 40018d2:	d106      	bne.n	40018e2 <hal_rtc_init+0x92>
 40018d4:	4640      	mov	r0, r8
 40018d6:	499a      	ldr	r1, [pc, #616]	; (4001b40 <hal_rtc_init+0x2f0>)
 40018d8:	f000 fb72 	bl	4001fc0 <bl_print>
 40018dc:	f444 5410 	orr.w	r4, r4, #9216	; 0x2400
 40018e0:	e034      	b.n	400194c <hal_rtc_init+0xfc>
 40018e2:	681b      	ldr	r3, [r3, #0]
 40018e4:	2b01      	cmp	r3, #1
 40018e6:	d106      	bne.n	40018f6 <hal_rtc_init+0xa6>
 40018e8:	4640      	mov	r0, r8
 40018ea:	4996      	ldr	r1, [pc, #600]	; (4001b44 <hal_rtc_init+0x2f4>)
 40018ec:	f000 fb68 	bl	4001fc0 <bl_print>
 40018f0:	f444 5430 	orr.w	r4, r4, #11264	; 0x2c00
 40018f4:	e02a      	b.n	400194c <hal_rtc_init+0xfc>
 40018f6:	f89d 000c 	ldrb.w	r0, [sp, #12]
 40018fa:	b170      	cbz	r0, 400191a <hal_rtc_init+0xca>
 40018fc:	4640      	mov	r0, r8
 40018fe:	4992      	ldr	r1, [pc, #584]	; (4001b48 <hal_rtc_init+0x2f8>)
 4001900:	f000 fb5e 	bl	4001fc0 <bl_print>
 4001904:	f444 5440 	orr.w	r4, r4, #12288	; 0x3000
 4001908:	f88d 800c 	strb.w	r8, [sp, #12]
 400190c:	e013      	b.n	4001936 <hal_rtc_init+0xe6>
 400190e:	f017 0008 	ands.w	r0, r7, #8
 4001912:	d016      	beq.n	4001942 <hal_rtc_init+0xf2>
 4001914:	f89d 000c 	ldrb.w	r0, [sp, #12]
 4001918:	b928      	cbnz	r0, 4001926 <hal_rtc_init+0xd6>
 400191a:	498c      	ldr	r1, [pc, #560]	; (4001b4c <hal_rtc_init+0x2fc>)
 400191c:	f000 fb50 	bl	4001fc0 <bl_print>
 4001920:	f444 54a0 	orr.w	r4, r4, #5120	; 0x1400
 4001924:	e012      	b.n	400194c <hal_rtc_init+0xfc>
 4001926:	4648      	mov	r0, r9
 4001928:	4987      	ldr	r1, [pc, #540]	; (4001b48 <hal_rtc_init+0x2f8>)
 400192a:	f000 fb49 	bl	4001fc0 <bl_print>
 400192e:	f444 5440 	orr.w	r4, r4, #12288	; 0x3000
 4001932:	f88d 900c 	strb.w	r9, [sp, #12]
 4001936:	4631      	mov	r1, r6
 4001938:	2201      	movs	r2, #1
 400193a:	2003      	movs	r0, #3
 400193c:	f7ff fcfe 	bl	400133c <hal_rtc_set_data>
 4001940:	e004      	b.n	400194c <hal_rtc_init+0xfc>
 4001942:	4983      	ldr	r1, [pc, #524]	; (4001b50 <hal_rtc_init+0x300>)
 4001944:	f000 fb3c 	bl	4001fc0 <bl_print>
 4001948:	f444 54c0 	orr.w	r4, r4, #6144	; 0x1800
 400194c:	682b      	ldr	r3, [r5, #0]
 400194e:	f8df 81e0 	ldr.w	r8, [pc, #480]	; 4001b30 <hal_rtc_init+0x2e0>
 4001952:	f8c3 4094 	str.w	r4, [r3, #148]	; 0x94
 4001956:	f7ff fc1f 	bl	4001198 <rtc_write_trigger_wait>
 400195a:	682b      	ldr	r3, [r5, #0]
 400195c:	4f7d      	ldr	r7, [pc, #500]	; (4001b54 <hal_rtc_init+0x304>)
 400195e:	f8d3 2094 	ldr.w	r2, [r3, #148]	; 0x94
 4001962:	f412 6f80 	tst.w	r2, #1024	; 0x400
 4001966:	d032      	beq.n	40019ce <hal_rtc_init+0x17e>
 4001968:	783b      	ldrb	r3, [r7, #0]
 400196a:	0699      	lsls	r1, r3, #26
 400196c:	d42b      	bmi.n	40019c6 <hal_rtc_init+0x176>
 400196e:	4668      	mov	r0, sp
 4001970:	f7ff fc90 	bl	4001294 <hal_rtc_get_time>
 4001974:	f8d8 4000 	ldr.w	r4, [r8]
 4001978:	6f22      	ldr	r2, [r4, #112]	; 0x70
 400197a:	f894 3061 	ldrb.w	r3, [r4, #97]	; 0x61
 400197e:	f88d 3012 	strb.w	r3, [sp, #18]
 4001982:	f894 3060 	ldrb.w	r3, [r4, #96]	; 0x60
 4001986:	f88d 3010 	strb.w	r3, [sp, #16]
 400198a:	f894 3065 	ldrb.w	r3, [r4, #101]	; 0x65
 400198e:	f88d 300f 	strb.w	r3, [sp, #15]
 4001992:	f894 3064 	ldrb.w	r3, [r4, #100]	; 0x64
 4001996:	f88d 300e 	strb.w	r3, [sp, #14]
 400199a:	f894 3099 	ldrb.w	r3, [r4, #153]	; 0x99
 400199e:	f88d 300d 	strb.w	r3, [sp, #13]
 40019a2:	f894 3098 	ldrb.w	r3, [r4, #152]	; 0x98
 40019a6:	f88d 300c 	strb.w	r3, [sp, #12]
 40019aa:	f8d4 309c 	ldr.w	r3, [r4, #156]	; 0x9c
 40019ae:	f8ad 3014 	strh.w	r3, [sp, #20]
 40019b2:	4630      	mov	r0, r6
 40019b4:	4669      	mov	r1, sp
 40019b6:	f7ff ff1b 	bl	40017f0 <rtc_tick_calculation>
 40019ba:	b283      	uxth	r3, r0
 40019bc:	0c00      	lsrs	r0, r0, #16
 40019be:	6623      	str	r3, [r4, #96]	; 0x60
 40019c0:	6660      	str	r0, [r4, #100]	; 0x64
 40019c2:	f7ff fbe9 	bl	4001198 <rtc_write_trigger_wait>
 40019c6:	f7ff fe0f 	bl	40015e8 <hal_rtc_exit_retention_mode>
 40019ca:	2200      	movs	r2, #0
 40019cc:	e0ec      	b.n	4001ba8 <hal_rtc_init+0x358>
 40019ce:	783a      	ldrb	r2, [r7, #0]
 40019d0:	f8d3 2094 	ldr.w	r2, [r3, #148]	; 0x94
 40019d4:	0552      	lsls	r2, r2, #21
 40019d6:	f100 80e4 	bmi.w	4001ba2 <hal_rtc_init+0x352>
 40019da:	f8d3 2094 	ldr.w	r2, [r3, #148]	; 0x94
 40019de:	4a5e      	ldr	r2, [pc, #376]	; (4001b58 <hal_rtc_init+0x308>)
 40019e0:	7812      	ldrb	r2, [r2, #0]
 40019e2:	2a00      	cmp	r2, #0
 40019e4:	d15a      	bne.n	4001a9c <hal_rtc_init+0x24c>
 40019e6:	f643 1102 	movw	r1, #14594	; 0x3902
 40019ea:	6019      	str	r1, [r3, #0]
 40019ec:	f8d8 3000 	ldr.w	r3, [r8]
 40019f0:	f240 1401 	movw	r4, #257	; 0x101
 40019f4:	6859      	ldr	r1, [r3, #4]
 40019f6:	609a      	str	r2, [r3, #8]
 40019f8:	f44f 7180 	mov.w	r1, #256	; 0x100
 40019fc:	60da      	str	r2, [r3, #12]
 40019fe:	611a      	str	r2, [r3, #16]
 4001a00:	615a      	str	r2, [r3, #20]
 4001a02:	6199      	str	r1, [r3, #24]
 4001a04:	61dc      	str	r4, [r3, #28]
 4001a06:	621a      	str	r2, [r3, #32]
 4001a08:	625a      	str	r2, [r3, #36]	; 0x24
 4001a0a:	6299      	str	r1, [r3, #40]	; 0x28
 4001a0c:	62dc      	str	r4, [r3, #44]	; 0x2c
 4001a0e:	631a      	str	r2, [r3, #48]	; 0x30
 4001a10:	f241 728a 	movw	r2, #6026	; 0x178a
 4001a14:	635c      	str	r4, [r3, #52]	; 0x34
 4001a16:	63da      	str	r2, [r3, #60]	; 0x3c
 4001a18:	f7ff fbbe 	bl	4001198 <rtc_write_trigger_wait>
 4001a1c:	4620      	mov	r0, r4
 4001a1e:	2102      	movs	r1, #2
 4001a20:	f7ff fada 	bl	4000fd8 <rtc_write_osc32con0>
 4001a24:	f000 fe12 	bl	400264c <chip_is_mt2625E3>
 4001a28:	b110      	cbz	r0, 4001a30 <hal_rtc_init+0x1e0>
 4001a2a:	f640 700e 	movw	r0, #3854	; 0xf0e
 4001a2e:	e001      	b.n	4001a34 <hal_rtc_init+0x1e4>
 4001a30:	f640 7007 	movw	r0, #3847	; 0xf07
 4001a34:	f7ff faf8 	bl	4001028 <rtc_write_osc32con1>
 4001a38:	f643 7003 	movw	r0, #16131	; 0x3f03
 4001a3c:	2102      	movs	r1, #2
 4001a3e:	f7ff fb0b 	bl	4001058 <rtc_write_osc32con2>
 4001a42:	2102      	movs	r1, #2
 4001a44:	f640 700f 	movw	r0, #3855	; 0xf0f
 4001a48:	f7ff fb2e 	bl	40010a8 <rtc_write_sramcon>
 4001a4c:	682b      	ldr	r3, [r5, #0]
 4001a4e:	2200      	movs	r2, #0
 4001a50:	659a      	str	r2, [r3, #88]	; 0x58
 4001a52:	65da      	str	r2, [r3, #92]	; 0x5c
 4001a54:	661a      	str	r2, [r3, #96]	; 0x60
 4001a56:	665a      	str	r2, [r3, #100]	; 0x64
 4001a58:	f8c3 2098 	str.w	r2, [r3, #152]	; 0x98
 4001a5c:	f8c3 209c 	str.w	r2, [r3, #156]	; 0x9c
 4001a60:	f8d3 1094 	ldr.w	r1, [r3, #148]	; 0x94
 4001a64:	f401 5162 	and.w	r1, r1, #14464	; 0x3880
 4001a68:	f8c3 1094 	str.w	r1, [r3, #148]	; 0x94
 4001a6c:	f64c 21ca 	movw	r1, #51914	; 0xcaca
 4001a70:	66da      	str	r2, [r3, #108]	; 0x6c
 4001a72:	671a      	str	r2, [r3, #112]	; 0x70
 4001a74:	6799      	str	r1, [r3, #120]	; 0x78
 4001a76:	f44f 4136 	mov.w	r1, #46592	; 0xb600
 4001a7a:	67d9      	str	r1, [r3, #124]	; 0x7c
 4001a7c:	f44f 7180 	mov.w	r1, #256	; 0x100
 4001a80:	f8c3 2080 	str.w	r2, [r3, #128]	; 0x80
 4001a84:	f8c3 2084 	str.w	r2, [r3, #132]	; 0x84
 4001a88:	f8c3 1088 	str.w	r1, [r3, #136]	; 0x88
 4001a8c:	f240 1101 	movw	r1, #257	; 0x101
 4001a90:	f8c3 108c 	str.w	r1, [r3, #140]	; 0x8c
 4001a94:	f8c3 2090 	str.w	r2, [r3, #144]	; 0x90
 4001a98:	f7ff fb7e 	bl	4001198 <rtc_write_trigger_wait>
 4001a9c:	682b      	ldr	r3, [r5, #0]
 4001a9e:	f240 1201 	movw	r2, #257	; 0x101
 4001aa2:	635a      	str	r2, [r3, #52]	; 0x34
 4001aa4:	f7ff fb78 	bl	4001198 <rtc_write_trigger_wait>
 4001aa8:	682b      	ldr	r3, [r5, #0]
 4001aaa:	f246 74d2 	movw	r4, #26578	; 0x67d2
 4001aae:	f24a 3657 	movw	r6, #41815	; 0xa357
 4001ab2:	651e      	str	r6, [r3, #80]	; 0x50
 4001ab4:	655c      	str	r4, [r3, #84]	; 0x54
 4001ab6:	f7ff fb6f 	bl	4001198 <rtc_write_trigger_wait>
 4001aba:	20c8      	movs	r0, #200	; 0xc8
 4001abc:	f007 f896 	bl	4008bec <hal_gpt_delay_us>
 4001ac0:	f7ff fb9a 	bl	40011f8 <rtc_lpd_init>
 4001ac4:	682b      	ldr	r3, [r5, #0]
 4001ac6:	651e      	str	r6, [r3, #80]	; 0x50
 4001ac8:	655c      	str	r4, [r3, #84]	; 0x54
 4001aca:	f7ff fb65 	bl	4001198 <rtc_write_trigger_wait>
 4001ace:	20c8      	movs	r0, #200	; 0xc8
 4001ad0:	f007 f88c 	bl	4008bec <hal_gpt_delay_us>
 4001ad4:	f7ff fb7c 	bl	40011d0 <rtc_reload>
 4001ad8:	682b      	ldr	r3, [r5, #0]
 4001ada:	f893 2075 	ldrb.w	r2, [r3, #117]	; 0x75
 4001ade:	f64e 6220 	movw	r2, #60960	; 0xee20
 4001ae2:	601a      	str	r2, [r3, #0]
 4001ae4:	f7ff fb58 	bl	4001198 <rtc_write_trigger_wait>
 4001ae8:	f7ff fb7c 	bl	40011e4 <rtc_read_osc32con1>
 4001aec:	f040 0080 	orr.w	r0, r0, #128	; 0x80
 4001af0:	f7ff fa9a 	bl	4001028 <rtc_write_osc32con1>
 4001af4:	f7ff fb80 	bl	40011f8 <rtc_lpd_init>
 4001af8:	682b      	ldr	r3, [r5, #0]
 4001afa:	2200      	movs	r2, #0
 4001afc:	f883 2035 	strb.w	r2, [r3, #53]	; 0x35
 4001b00:	f7ff fb4a 	bl	4001198 <rtc_write_trigger_wait>
 4001b04:	783b      	ldrb	r3, [r7, #0]
 4001b06:	f003 0320 	and.w	r3, r3, #32
 4001b0a:	f003 04ff 	and.w	r4, r3, #255	; 0xff
 4001b0e:	bb2b      	cbnz	r3, 4001b5c <hal_rtc_init+0x30c>
 4001b10:	f7ff fb68 	bl	40011e4 <rtc_read_osc32con1>
 4001b14:	f040 0060 	orr.w	r0, r0, #96	; 0x60
 4001b18:	f7ff fa86 	bl	4001028 <rtc_write_osc32con1>
 4001b1c:	2002      	movs	r0, #2
 4001b1e:	4621      	mov	r1, r4
 4001b20:	f7ff fa5a 	bl	4000fd8 <rtc_write_osc32con0>
 4001b24:	20c8      	movs	r0, #200	; 0xc8
 4001b26:	f007 f861 	bl	4008bec <hal_gpt_delay_us>
 4001b2a:	2001      	movs	r0, #1
 4001b2c:	e02d      	b.n	4001b8a <hal_rtc_init+0x33a>
 4001b2e:	bf00      	nop
 4001b30:	04009c0c 	streq	r9, [r0], #-3084	; 0xc0c
 4001b34:	04005acd 	streq	r5, [r0], #-2765	; 0xacd
 4001b38:	04005adf 	streq	r5, [r0], #-2783	; 0xadf
 4001b3c:	a2090020 	andge	r0, r9, #32
 4001b40:	04005afa 	streq	r5, [r0], #-2810	; 0xafa
 4001b44:	04005b12 	streq	r5, [r0], #-2834	; 0xb12
 4001b48:	04005b44 	streq	r5, [r0], #-2884	; 0xb44
 4001b4c:	04005b2a 	streq	r5, [r0], #-2858	; 0xb2a
 4001b50:	04005b65 	streq	r5, [r0], #-2917	; 0xb65
 4001b54:	a2010040 	andge	r0, r1, #64	; 0x40
 4001b58:	0000045b 	andeq	r0, r0, fp, asr r4
 4001b5c:	4b15      	ldr	r3, [pc, #84]	; (4001bb4 <hal_rtc_init+0x364>)
 4001b5e:	881c      	ldrh	r4, [r3, #0]
 4001b60:	f3c4 040a 	ubfx	r4, r4, #0, #11
 4001b64:	2c00      	cmp	r4, #0
 4001b66:	d1f9      	bne.n	4001b5c <hal_rtc_init+0x30c>
 4001b68:	4620      	mov	r0, r4
 4001b6a:	4621      	mov	r1, r4
 4001b6c:	f7ff fa34 	bl	4000fd8 <rtc_write_osc32con0>
 4001b70:	20c8      	movs	r0, #200	; 0xc8
 4001b72:	f007 f83b 	bl	4008bec <hal_gpt_delay_us>
 4001b76:	682b      	ldr	r3, [r5, #0]
 4001b78:	f44f 7280 	mov.w	r2, #256	; 0x100
 4001b7c:	615c      	str	r4, [r3, #20]
 4001b7e:	619a      	str	r2, [r3, #24]
 4001b80:	f240 1201 	movw	r2, #257	; 0x101
 4001b84:	61da      	str	r2, [r3, #28]
 4001b86:	2002      	movs	r0, #2
 4001b88:	621c      	str	r4, [r3, #32]
 4001b8a:	4621      	mov	r1, r4
 4001b8c:	f7ff fa64 	bl	4001058 <rtc_write_osc32con2>
 4001b90:	682b      	ldr	r3, [r5, #0]
 4001b92:	f8d3 2094 	ldr.w	r2, [r3, #148]	; 0x94
 4001b96:	f442 6280 	orr.w	r2, r2, #1024	; 0x400
 4001b9a:	f8c3 2094 	str.w	r2, [r3, #148]	; 0x94
 4001b9e:	f7ff fafb 	bl	4001198 <rtc_write_trigger_wait>
 4001ba2:	f7ff fd21 	bl	40015e8 <hal_rtc_exit_retention_mode>
 4001ba6:	2201      	movs	r2, #1
 4001ba8:	4b03      	ldr	r3, [pc, #12]	; (4001bb8 <hal_rtc_init+0x368>)
 4001baa:	2000      	movs	r0, #0
 4001bac:	701a      	strb	r2, [r3, #0]
 4001bae:	b007      	add	sp, #28
 4001bb0:	e8bd 83f0 	ldmia.w	sp!, {r4, r5, r6, r7, r8, r9, pc}
 4001bb4:	a2080038 	andge	r0, r8, #56	; 0x38
 4001bb8:	00000456 	andeq	r0, r0, r6, asr r4

04001bbc <hal_wdt_isr>:
 4001bbc:	b508      	push	{r3, lr}
 4001bbe:	f000 f8b5 	bl	4001d2c <wdt_get_reset_status>
 4001bc2:	4b04      	ldr	r3, [pc, #16]	; (4001bd4 <hal_wdt_isr+0x18>)
 4001bc4:	681b      	ldr	r3, [r3, #0]
 4001bc6:	b2c0      	uxtb	r0, r0
 4001bc8:	b103      	cbz	r3, 4001bcc <hal_wdt_isr+0x10>
 4001bca:	4798      	blx	r3
 4001bcc:	e8bd 4008 	ldmia.w	sp!, {r3, lr}
 4001bd0:	f000 b8ba 	b.w	4001d48 <wdt_clear_irq>
 4001bd4:	00000464 	andeq	r0, r0, r4, ror #8

04001bd8 <hal_wdt_init>:
 4001bd8:	b538      	push	{r3, r4, r5, lr}
 4001bda:	4604      	mov	r4, r0
 4001bdc:	b300      	cbz	r0, 4001c20 <hal_wdt_init+0x48>
 4001bde:	7803      	ldrb	r3, [r0, #0]
 4001be0:	2b01      	cmp	r3, #1
 4001be2:	d81d      	bhi.n	4001c20 <hal_wdt_init+0x48>
 4001be4:	6843      	ldr	r3, [r0, #4]
 4001be6:	f5b3 7f7a 	cmp.w	r3, #1000	; 0x3e8
 4001bea:	d819      	bhi.n	4001c20 <hal_wdt_init+0x48>
 4001bec:	4b0f      	ldr	r3, [pc, #60]	; (4001c2c <hal_wdt_init+0x54>)
 4001bee:	2500      	movs	r5, #0
 4001bf0:	2096      	movs	r0, #150	; 0x96
 4001bf2:	601d      	str	r5, [r3, #0]
 4001bf4:	f006 fffa 	bl	4008bec <hal_gpt_delay_us>
 4001bf8:	6860      	ldr	r0, [r4, #4]
 4001bfa:	f000 f85b 	bl	4001cb4 <wdt_set_length>
 4001bfe:	2096      	movs	r0, #150	; 0x96
 4001c00:	f006 fff4 	bl	4008bec <hal_gpt_delay_us>
 4001c04:	7820      	ldrb	r0, [r4, #0]
 4001c06:	f000 f867 	bl	4001cd8 <wdt_set_mode>
 4001c0a:	7823      	ldrb	r3, [r4, #0]
 4001c0c:	2b01      	cmp	r3, #1
 4001c0e:	d109      	bne.n	4001c24 <hal_wdt_init+0x4c>
 4001c10:	2026      	movs	r0, #38	; 0x26
 4001c12:	4907      	ldr	r1, [pc, #28]	; (4001c30 <hal_wdt_init+0x58>)
 4001c14:	f7fe fc28 	bl	4000468 <hal_nvic_register_isr_handler>
 4001c18:	4b06      	ldr	r3, [pc, #24]	; (4001c34 <hal_wdt_init+0x5c>)
 4001c1a:	2240      	movs	r2, #64	; 0x40
 4001c1c:	605a      	str	r2, [r3, #4]
 4001c1e:	e001      	b.n	4001c24 <hal_wdt_init+0x4c>
 4001c20:	20fe      	movs	r0, #254	; 0xfe
 4001c22:	e000      	b.n	4001c26 <hal_wdt_init+0x4e>
 4001c24:	4628      	mov	r0, r5
 4001c26:	b240      	sxtb	r0, r0
 4001c28:	bd38      	pop	{r3, r4, r5, pc}
 4001c2a:	bf00      	nop
 4001c2c:	00000464 	andeq	r0, r0, r4, ror #8
 4001c30:	04001bbd 	streq	r1, [r0], #-3005	; 0xbbd
 4001c34:	e000e100 	and	lr, r0, r0, lsl #2

04001c38 <hal_wdt_feed>:
 4001c38:	4b0e      	ldr	r3, [pc, #56]	; (4001c74 <hal_wdt_feed+0x3c>)
 4001c3a:	4298      	cmp	r0, r3
 4001c3c:	b513      	push	{r0, r1, r4, lr}
 4001c3e:	d115      	bne.n	4001c6c <hal_wdt_feed+0x34>
 4001c40:	a801      	add	r0, sp, #4
 4001c42:	4c0d      	ldr	r4, [pc, #52]	; (4001c78 <hal_wdt_feed+0x40>)
 4001c44:	f006 fea4 	bl	4008990 <hal_nvic_save_and_set_interrupt_mask>
 4001c48:	2001      	movs	r0, #1
 4001c4a:	4669      	mov	r1, sp
 4001c4c:	f006 ff78 	bl	4008b40 <hal_gpt_get_free_run_count>
 4001c50:	6823      	ldr	r3, [r4, #0]
 4001c52:	9a00      	ldr	r2, [sp, #0]
 4001c54:	1ad3      	subs	r3, r2, r3
 4001c56:	2bc8      	cmp	r3, #200	; 0xc8
 4001c58:	d903      	bls.n	4001c62 <hal_wdt_feed+0x2a>
 4001c5a:	f000 f847 	bl	4001cec <wdt_set_restart>
 4001c5e:	9b00      	ldr	r3, [sp, #0]
 4001c60:	6023      	str	r3, [r4, #0]
 4001c62:	9801      	ldr	r0, [sp, #4]
 4001c64:	f006 fe9b 	bl	400899e <hal_nvic_restore_interrupt_mask>
 4001c68:	2000      	movs	r0, #0
 4001c6a:	e000      	b.n	4001c6e <hal_wdt_feed+0x36>
 4001c6c:	20ff      	movs	r0, #255	; 0xff
 4001c6e:	b240      	sxtb	r0, r0
 4001c70:	b002      	add	sp, #8
 4001c72:	bd10      	pop	{r4, pc}
 4001c74:	deadcafe 	mcrle	10, 5, ip, cr13, cr14, {7}
 4001c78:	00000460 	andeq	r0, r0, r0, ror #8

04001c7c <hal_wdt_software_reset>:
 4001c7c:	b508      	push	{r3, lr}
 4001c7e:	2000      	movs	r0, #0
 4001c80:	f000 f844 	bl	4001d0c <wdt_set_enable>
 4001c84:	f000 f83a 	bl	4001cfc <wdt_set_sw_rst>
 4001c88:	2000      	movs	r0, #0
 4001c8a:	bd08      	pop	{r3, pc}

04001c8c <hal_wdt_enable>:
 4001c8c:	b508      	push	{r3, lr}
 4001c8e:	4b07      	ldr	r3, [pc, #28]	; (4001cac <hal_wdt_enable+0x20>)
 4001c90:	4298      	cmp	r0, r3
 4001c92:	d107      	bne.n	4001ca4 <hal_wdt_enable+0x18>
 4001c94:	2001      	movs	r0, #1
 4001c96:	f000 f839 	bl	4001d0c <wdt_set_enable>
 4001c9a:	4805      	ldr	r0, [pc, #20]	; (4001cb0 <hal_wdt_enable+0x24>)
 4001c9c:	f7ff ffcc 	bl	4001c38 <hal_wdt_feed>
 4001ca0:	2000      	movs	r0, #0
 4001ca2:	e000      	b.n	4001ca6 <hal_wdt_enable+0x1a>
 4001ca4:	20ff      	movs	r0, #255	; 0xff
 4001ca6:	b240      	sxtb	r0, r0
 4001ca8:	bd08      	pop	{r3, pc}
 4001caa:	bf00      	nop
 4001cac:	cafebabe 	bgt	3fb07ac <__bss_end__+0x3fb00e8>
 4001cb0:	deadcafe 	mcrle	10, 5, ip, cr13, cr14, {7}

04001cb4 <wdt_set_length>:
 4001cb4:	f242 7310 	movw	r3, #10000	; 0x2710
 4001cb8:	4358      	muls	r0, r3
 4001cba:	229c      	movs	r2, #156	; 0x9c
 4001cbc:	fbb0 f2f2 	udiv	r2, r0, r2
 4001cc0:	4b03      	ldr	r3, [pc, #12]	; (4001cd0 <wdt_set_length+0x1c>)
 4001cc2:	0412      	lsls	r2, r2, #16
 4001cc4:	f042 0212 	orr.w	r2, r2, #18
 4001cc8:	605a      	str	r2, [r3, #4]
 4001cca:	4a02      	ldr	r2, [pc, #8]	; (4001cd4 <wdt_set_length+0x20>)
 4001ccc:	60da      	str	r2, [r3, #12]
 4001cce:	4770      	bx	lr
 4001cd0:	a2090000 	andge	r0, r9, #0
 4001cd4:	1456789a 	ldrbne	r7, [r6], #-2202	; 0x89a

04001cd8 <wdt_set_mode>:
 4001cd8:	2801      	cmp	r0, #1
 4001cda:	4b03      	ldr	r3, [pc, #12]	; (4001ce8 <wdt_set_mode+0x10>)
 4001cdc:	bf0c      	ite	eq
 4001cde:	f240 1217 	movweq	r2, #279	; 0x117
 4001ce2:	2217      	movne	r2, #23
 4001ce4:	619a      	str	r2, [r3, #24]
 4001ce6:	4770      	bx	lr
 4001ce8:	a2090000 	andge	r0, r9, #0

04001cec <wdt_set_restart>:
 4001cec:	4b01      	ldr	r3, [pc, #4]	; (4001cf4 <wdt_set_restart+0x8>)
 4001cee:	4a02      	ldr	r2, [pc, #8]	; (4001cf8 <wdt_set_restart+0xc>)
 4001cf0:	60da      	str	r2, [r3, #12]
 4001cf2:	4770      	bx	lr
 4001cf4:	a2090000 	andge	r0, r9, #0
 4001cf8:	1456789a 	ldrbne	r7, [r6], #-2202	; 0x89a

04001cfc <wdt_set_sw_rst>:
 4001cfc:	4b01      	ldr	r3, [pc, #4]	; (4001d04 <wdt_set_sw_rst+0x8>)
 4001cfe:	4a02      	ldr	r2, [pc, #8]	; (4001d08 <wdt_set_sw_rst+0xc>)
 4001d00:	611a      	str	r2, [r3, #16]
 4001d02:	4770      	bx	lr
 4001d04:	a2090000 	andge	r0, r9, #0
 4001d08:	156789ab 	strbne	r8, [r7, #-2475]!	; 0x9ab

04001d0c <wdt_set_enable>:
 4001d0c:	4b06      	ldr	r3, [pc, #24]	; (4001d28 <wdt_set_enable+0x1c>)
 4001d0e:	b128      	cbz	r0, 4001d1c <wdt_set_enable+0x10>
 4001d10:	f240 1211 	movw	r2, #273	; 0x111
 4001d14:	601a      	str	r2, [r3, #0]
 4001d16:	f44f 728b 	mov.w	r2, #278	; 0x116
 4001d1a:	e002      	b.n	4001d22 <wdt_set_enable+0x16>
 4001d1c:	2211      	movs	r2, #17
 4001d1e:	601a      	str	r2, [r3, #0]
 4001d20:	2216      	movs	r2, #22
 4001d22:	615a      	str	r2, [r3, #20]
 4001d24:	4770      	bx	lr
 4001d26:	bf00      	nop
 4001d28:	a2090000 	andge	r0, r9, #0

04001d2c <wdt_get_reset_status>:
 4001d2c:	4b05      	ldr	r3, [pc, #20]	; (4001d44 <wdt_get_reset_status+0x18>)
 4001d2e:	6a1b      	ldr	r3, [r3, #32]
 4001d30:	079a      	lsls	r2, r3, #30
 4001d32:	d405      	bmi.n	4001d40 <wdt_get_reset_status+0x14>
 4001d34:	f013 0f01 	tst.w	r3, #1
 4001d38:	bf0c      	ite	eq
 4001d3a:	2002      	moveq	r0, #2
 4001d3c:	2001      	movne	r0, #1
 4001d3e:	4770      	bx	lr
 4001d40:	2000      	movs	r0, #0
 4001d42:	4770      	bx	lr
 4001d44:	a2090000 	andge	r0, r9, #0

04001d48 <wdt_clear_irq>:
 4001d48:	4b01      	ldr	r3, [pc, #4]	; (4001d50 <wdt_clear_irq+0x8>)
 4001d4a:	69db      	ldr	r3, [r3, #28]
 4001d4c:	4770      	bx	lr
 4001d4e:	bf00      	nop
 4001d50:	a2090000 	andge	r0, r9, #0

04001d54 <rock_mismatch>:
 4001d54:	2000      	movs	r0, #0
 4001d56:	4770      	bx	lr

04001d58 <rock_fatal>:
 4001d58:	2000      	movs	r0, #0
 4001d5a:	4770      	bx	lr

04001d5c <rock_trace>:
 4001d5c:	b40e      	push	{r1, r2, r3}
 4001d5e:	b530      	push	{r4, r5, lr}
 4001d60:	f5ad 6d81 	sub.w	sp, sp, #1032	; 0x408
 4001d64:	f20d 4414 	addw	r4, sp, #1044	; 0x414
 4001d68:	f44f 6280 	mov.w	r2, #1024	; 0x400
 4001d6c:	f854 5b04 	ldr.w	r5, [r4], #4
 4001d70:	a802      	add	r0, sp, #8
 4001d72:	2100      	movs	r1, #0
 4001d74:	f003 fc1c 	bl	40055b0 <memset>
 4001d78:	a802      	add	r0, sp, #8
 4001d7a:	4909      	ldr	r1, [pc, #36]	; (4001da0 <rock_trace+0x44>)
 4001d7c:	f003 fc20 	bl	40055c0 <strcat>
 4001d80:	4629      	mov	r1, r5
 4001d82:	a802      	add	r0, sp, #8
 4001d84:	f003 fc1c 	bl	40055c0 <strcat>
 4001d88:	2000      	movs	r0, #0
 4001d8a:	a902      	add	r1, sp, #8
 4001d8c:	4622      	mov	r2, r4
 4001d8e:	9401      	str	r4, [sp, #4]
 4001d90:	f000 f91a 	bl	4001fc8 <bl_print_internal>
 4001d94:	f50d 6d81 	add.w	sp, sp, #1032	; 0x408
 4001d98:	e8bd 4030 	ldmia.w	sp!, {r4, r5, lr}
 4001d9c:	b003      	add	sp, #12
 4001d9e:	4770      	bx	lr
 4001da0:	04005bec 	streq	r5, [r0], #-3052	; 0xbec

04001da4 <rock_progress>:
 4001da4:	b538      	push	{r3, r4, r5, lr}
 4001da6:	4605      	mov	r5, r0
 4001da8:	480a      	ldr	r0, [pc, #40]	; (4001dd4 <rock_progress+0x30>)
 4001daa:	460c      	mov	r4, r1
 4001dac:	f7ff ff44 	bl	4001c38 <hal_wdt_feed>
 4001db0:	4b09      	ldr	r3, [pc, #36]	; (4001dd8 <rock_progress+0x34>)
 4001db2:	681a      	ldr	r2, [r3, #0]
 4001db4:	3201      	adds	r2, #1
 4001db6:	4294      	cmp	r4, r2
 4001db8:	d30b      	bcc.n	4001dd2 <rock_progress+0x2e>
 4001dba:	4628      	mov	r0, r5
 4001dbc:	4907      	ldr	r1, [pc, #28]	; (4001ddc <rock_progress+0x38>)
 4001dbe:	601c      	str	r4, [r3, #0]
 4001dc0:	4622      	mov	r2, r4
 4001dc2:	f7ff ffcb 	bl	4001d5c <rock_trace>
 4001dc6:	4621      	mov	r1, r4
 4001dc8:	4805      	ldr	r0, [pc, #20]	; (4001de0 <rock_progress+0x3c>)
 4001dca:	e8bd 4038 	ldmia.w	sp!, {r3, r4, r5, lr}
 4001dce:	f000 b9e9 	b.w	40021a4 <ql_bl_print>
 4001dd2:	bd38      	pop	{r3, r4, r5, pc}
 4001dd4:	deadcafe 	mcrle	10, 5, ip, cr13, cr14, {7}
 4001dd8:	00000468 	andeq	r0, r0, r8, ror #8
 4001ddc:	04005bf8 	streq	r5, [r0], #-3064	; 0xbf8
 4001de0:	04005c12 	streq	r5, [r0], #-3090	; 0xc12

04001de4 <rock_write_block>:
 4001de4:	e92d 4ff7 	stmdb	sp!, {r0, r1, r2, r4, r5, r6, r7, r8, r9, sl, fp, lr}
 4001de8:	f102 4478 	add.w	r4, r2, #4160749568	; 0xf8000000
 4001dec:	4681      	mov	r9, r0
 4001dee:	4620      	mov	r0, r4
 4001df0:	468a      	mov	sl, r1
 4001df2:	4698      	mov	r8, r3
 4001df4:	f7fe ff64 	bl	4000cc0 <get_block_size_from_address>
 4001df8:	2801      	cmp	r0, #1
 4001dfa:	4683      	mov	fp, r0
 4001dfc:	d006      	beq.n	4001e0c <rock_write_block+0x28>
 4001dfe:	2802      	cmp	r0, #2
 4001e00:	bf0c      	ite	eq
 4001e02:	f44f 3580 	moveq.w	r5, #65536	; 0x10000
 4001e06:	f44f 5580 	movne.w	r5, #4096	; 0x1000
 4001e0a:	e001      	b.n	4001e10 <rock_write_block+0x2c>
 4001e0c:	f44f 4500 	mov.w	r5, #32768	; 0x8000
 4001e10:	2600      	movs	r6, #0
 4001e12:	4546      	cmp	r6, r8
 4001e14:	d221      	bcs.n	4001e5a <rock_write_block+0x76>
 4001e16:	4620      	mov	r0, r4
 4001e18:	fa5f f18b 	uxtb.w	r1, fp
 4001e1c:	f7fe ff6e 	bl	4000cfc <hal_flash_erase>
 4001e20:	4607      	mov	r7, r0
 4001e22:	b130      	cbz	r0, 4001e32 <rock_write_block+0x4e>
 4001e24:	4648      	mov	r0, r9
 4001e26:	490f      	ldr	r1, [pc, #60]	; (4001e64 <rock_write_block+0x80>)
 4001e28:	463a      	mov	r2, r7
 4001e2a:	4623      	mov	r3, r4
 4001e2c:	f7ff ff96 	bl	4001d5c <rock_trace>
 4001e30:	e00e      	b.n	4001e50 <rock_write_block+0x6c>
 4001e32:	4620      	mov	r0, r4
 4001e34:	eb0a 0106 	add.w	r1, sl, r6
 4001e38:	462a      	mov	r2, r5
 4001e3a:	f7fe ff85 	bl	4000d48 <hal_flash_write>
 4001e3e:	4607      	mov	r7, r0
 4001e40:	b140      	cbz	r0, 4001e54 <rock_write_block+0x70>
 4001e42:	9500      	str	r5, [sp, #0]
 4001e44:	4648      	mov	r0, r9
 4001e46:	4908      	ldr	r1, [pc, #32]	; (4001e68 <rock_write_block+0x84>)
 4001e48:	463a      	mov	r2, r7
 4001e4a:	4623      	mov	r3, r4
 4001e4c:	f7ff ff86 	bl	4001d5c <rock_trace>
 4001e50:	4638      	mov	r0, r7
 4001e52:	e003      	b.n	4001e5c <rock_write_block+0x78>
 4001e54:	442e      	add	r6, r5
 4001e56:	442c      	add	r4, r5
 4001e58:	e7db      	b.n	4001e12 <rock_write_block+0x2e>
 4001e5a:	4640      	mov	r0, r8
 4001e5c:	b003      	add	sp, #12
 4001e5e:	e8bd 8ff0 	ldmia.w	sp!, {r4, r5, r6, r7, r8, r9, sl, fp, pc}
 4001e62:	bf00      	nop
 4001e64:	04005c32 	streq	r5, [r0], #-3122	; 0xc32
 4001e68:	04005c5c 	streq	r5, [r0], #-3164	; 0xc5c

04001e6c <rock_read_block>:
 4001e6c:	b5f8      	push	{r3, r4, r5, r6, r7, lr}
 4001e6e:	f102 4578 	add.w	r5, r2, #4160749568	; 0xf8000000
 4001e72:	4607      	mov	r7, r0
 4001e74:	461a      	mov	r2, r3
 4001e76:	4628      	mov	r0, r5
 4001e78:	461e      	mov	r6, r3
 4001e7a:	f7fe ff53 	bl	4000d24 <hal_flash_read>
 4001e7e:	4604      	mov	r4, r0
 4001e80:	b908      	cbnz	r0, 4001e86 <rock_read_block+0x1a>
 4001e82:	4630      	mov	r0, r6
 4001e84:	bdf8      	pop	{r3, r4, r5, r6, r7, pc}
 4001e86:	4638      	mov	r0, r7
 4001e88:	4903      	ldr	r1, [pc, #12]	; (4001e98 <rock_read_block+0x2c>)
 4001e8a:	4622      	mov	r2, r4
 4001e8c:	462b      	mov	r3, r5
 4001e8e:	f7ff ff65 	bl	4001d5c <rock_trace>
 4001e92:	4620      	mov	r0, r4
 4001e94:	bdf8      	pop	{r3, r4, r5, r6, r7, pc}
 4001e96:	bf00      	nop
 4001e98:	04005c95 	streq	r5, [r0], #-3221	; 0xc95

04001e9c <rock_read_delta>:
 4001e9c:	b5f8      	push	{r3, r4, r5, r6, r7, lr}
 4001e9e:	4607      	mov	r7, r0
 4001ea0:	f502 1039 	add.w	r0, r2, #3031040	; 0x2e4000
 4001ea4:	4615      	mov	r5, r2
 4001ea6:	f500 5000 	add.w	r0, r0, #8192	; 0x2000
 4001eaa:	461a      	mov	r2, r3
 4001eac:	461e      	mov	r6, r3
 4001eae:	f7fe ff39 	bl	4000d24 <hal_flash_read>
 4001eb2:	4604      	mov	r4, r0
 4001eb4:	b908      	cbnz	r0, 4001eba <rock_read_delta+0x1e>
 4001eb6:	4630      	mov	r0, r6
 4001eb8:	bdf8      	pop	{r3, r4, r5, r6, r7, pc}
 4001eba:	4638      	mov	r0, r7
 4001ebc:	4903      	ldr	r1, [pc, #12]	; (4001ecc <rock_read_delta+0x30>)
 4001ebe:	4622      	mov	r2, r4
 4001ec0:	f105 4378 	add.w	r3, r5, #4160749568	; 0xf8000000
 4001ec4:	f7ff ff4a 	bl	4001d5c <rock_trace>
 4001ec8:	4620      	mov	r0, r4
 4001eca:	bdf8      	pop	{r3, r4, r5, r6, r7, pc}
 4001ecc:	04005cbf 	streq	r5, [r0], #-3263	; 0xcbf

04001ed0 <rock_get_blocksize>:
 4001ed0:	f44f 3000 	mov.w	r0, #131072	; 0x20000
 4001ed4:	4770      	bx	lr

04001ed6 <rock_read_file>:
 4001ed6:	2000      	movs	r0, #0
 4001ed8:	4770      	bx	lr

04001eda <rock_write_file>:
 4001eda:	2000      	movs	r0, #0
 4001edc:	4770      	bx	lr

04001ede <rock_delete_file>:
 4001ede:	2000      	movs	r0, #0
 4001ee0:	4770      	bx	lr
	...

04001ee4 <rock_main>:
 4001ee4:	b570      	push	{r4, r5, r6, lr}
 4001ee6:	b08a      	sub	sp, #40	; 0x28
 4001ee8:	4606      	mov	r6, r0
 4001eea:	2100      	movs	r1, #0
 4001eec:	a801      	add	r0, sp, #4
 4001eee:	2224      	movs	r2, #36	; 0x24
 4001ef0:	f003 fb5e 	bl	40055b0 <memset>
 4001ef4:	2100      	movs	r1, #0
 4001ef6:	4d10      	ldr	r5, [pc, #64]	; (4001f38 <rock_main+0x54>)
 4001ef8:	9107      	str	r1, [sp, #28]
 4001efa:	4b10      	ldr	r3, [pc, #64]	; (4001f3c <rock_main+0x58>)
 4001efc:	9302      	str	r3, [sp, #8]
 4001efe:	2101      	movs	r1, #1
 4001f00:	f44f 2280 	mov.w	r2, #262144	; 0x40000
 4001f04:	f44f 13e0 	mov.w	r3, #1835008	; 0x1c0000
 4001f08:	f44f 3400 	mov.w	r4, #131072	; 0x20000
 4001f0c:	9108      	str	r1, [sp, #32]
 4001f0e:	a801      	add	r0, sp, #4
 4001f10:	490b      	ldr	r1, [pc, #44]	; (4001f40 <rock_main+0x5c>)
 4001f12:	9203      	str	r2, [sp, #12]
 4001f14:	9304      	str	r3, [sp, #16]
 4001f16:	9505      	str	r5, [sp, #20]
 4001f18:	9406      	str	r4, [sp, #24]
 4001f1a:	9609      	str	r6, [sp, #36]	; 0x24
 4001f1c:	f7ff ff1e 	bl	4001d5c <rock_trace>
 4001f20:	a801      	add	r0, sp, #4
 4001f22:	4908      	ldr	r1, [pc, #32]	; (4001f44 <rock_main+0x60>)
 4001f24:	462a      	mov	r2, r5
 4001f26:	4623      	mov	r3, r4
 4001f28:	f7ff ff18 	bl	4001d5c <rock_trace>
 4001f2c:	a801      	add	r0, sp, #4
 4001f2e:	f000 fea7 	bl	4002c80 <iot_patch>
 4001f32:	b00a      	add	sp, #40	; 0x28
 4001f34:	bd70      	pop	{r4, r5, r6, pc}
 4001f36:	bf00      	nop
 4001f38:	082c6000 	stmdaeq	ip!, {sp, lr}
 4001f3c:	08012000 	stmdaeq	r1, {sp}
 4001f40:	04005ce9 	streq	r5, [r0], #-3305	; 0xce9
 4001f44:	04005d03 	streq	r5, [r0], #-3331	; 0xd03

04001f48 <printf>:
 4001f48:	b40f      	push	{r0, r1, r2, r3}
 4001f4a:	b508      	push	{r3, lr}
 4001f4c:	2000      	movs	r0, #0
 4001f4e:	9902      	ldr	r1, [sp, #8]
 4001f50:	f000 f836 	bl	4001fc0 <bl_print>
 4001f54:	e8bd 4008 	ldmia.w	sp!, {r3, lr}
 4001f58:	2000      	movs	r0, #0
 4001f5a:	b004      	add	sp, #16
 4001f5c:	4770      	bx	lr
	...

04001f60 <bl_itoa>:
 4001f60:	4b15      	ldr	r3, [pc, #84]	; (4001fb8 <bl_itoa+0x58>)
 4001f62:	b570      	push	{r4, r5, r6, lr}
 4001f64:	2400      	movs	r4, #0
 4001f66:	751c      	strb	r4, [r3, #20]
 4001f68:	b931      	cbnz	r1, 4001f78 <bl_itoa+0x18>
 4001f6a:	6803      	ldr	r3, [r0, #0]
 4001f6c:	2230      	movs	r2, #48	; 0x30
 4001f6e:	701a      	strb	r2, [r3, #0]
 4001f70:	6803      	ldr	r3, [r0, #0]
 4001f72:	3301      	adds	r3, #1
 4001f74:	6003      	str	r3, [r0, #0]
 4001f76:	bd70      	pop	{r4, r5, r6, pc}
 4001f78:	3314      	adds	r3, #20
 4001f7a:	fbb1 f4f2 	udiv	r4, r1, r2
 4001f7e:	fb02 1514 	mls	r5, r2, r4, r1
 4001f82:	2d09      	cmp	r5, #9
 4001f84:	4621      	mov	r1, r4
 4001f86:	d801      	bhi.n	4001f8c <bl_itoa+0x2c>
 4001f88:	3530      	adds	r5, #48	; 0x30
 4001f8a:	e005      	b.n	4001f98 <bl_itoa+0x38>
 4001f8c:	2a10      	cmp	r2, #16
 4001f8e:	d106      	bne.n	4001f9e <bl_itoa+0x3e>
 4001f90:	4e0a      	ldr	r6, [pc, #40]	; (4001fbc <bl_itoa+0x5c>)
 4001f92:	4435      	add	r5, r6
 4001f94:	f815 5c0a 	ldrb.w	r5, [r5, #-10]
 4001f98:	f803 5c01 	strb.w	r5, [r3, #-1]
 4001f9c:	3b01      	subs	r3, #1
 4001f9e:	2c00      	cmp	r4, #0
 4001fa0:	d1eb      	bne.n	4001f7a <bl_itoa+0x1a>
 4001fa2:	3b01      	subs	r3, #1
 4001fa4:	f813 2f01 	ldrb.w	r2, [r3, #1]!
 4001fa8:	b12a      	cbz	r2, 4001fb6 <bl_itoa+0x56>
 4001faa:	6801      	ldr	r1, [r0, #0]
 4001fac:	700a      	strb	r2, [r1, #0]
 4001fae:	6802      	ldr	r2, [r0, #0]
 4001fb0:	3201      	adds	r2, #1
 4001fb2:	6002      	str	r2, [r0, #0]
 4001fb4:	e7f6      	b.n	4001fa4 <bl_itoa+0x44>
 4001fb6:	bd70      	pop	{r4, r5, r6, pc}
 4001fb8:	0000046c 	andeq	r0, r0, ip, ror #8
 4001fbc:	04005d23 	streq	r5, [r0], #-3363	; 0xd23

04001fc0 <bl_print>:
 4001fc0:	b40e      	push	{r1, r2, r3}
 4001fc2:	b003      	add	sp, #12
 4001fc4:	4770      	bx	lr

04001fc6 <bl_set_debug_level>:
 4001fc6:	4770      	bx	lr

04001fc8 <bl_print_internal>:
 4001fc8:	b40e      	push	{r1, r2, r3}
 4001fca:	b003      	add	sp, #12
 4001fcc:	4770      	bx	lr
	...

04001fd0 <ql_bl_print_internal>:
 4001fd0:	e92d 41f3 	stmdb	sp!, {r0, r1, r4, r5, r6, r7, r8, lr}
 4001fd4:	4f70      	ldr	r7, [pc, #448]	; (4002198 <ql_bl_print_internal+0x1c8>)
 4001fd6:	9701      	str	r7, [sp, #4]
 4001fd8:	2300      	movs	r3, #0
 4001fda:	460e      	mov	r6, r1
 4001fdc:	703b      	strb	r3, [r7, #0]
 4001fde:	7803      	ldrb	r3, [r0, #0]
 4001fe0:	2b00      	cmp	r3, #0
 4001fe2:	f000 80c8 	beq.w	4002176 <ql_bl_print_internal+0x1a6>
 4001fe6:	2b25      	cmp	r3, #37	; 0x25
 4001fe8:	d005      	beq.n	4001ff6 <ql_bl_print_internal+0x26>
 4001fea:	9a01      	ldr	r2, [sp, #4]
 4001fec:	1c51      	adds	r1, r2, #1
 4001fee:	9101      	str	r1, [sp, #4]
 4001ff0:	4680      	mov	r8, r0
 4001ff2:	7013      	strb	r3, [r2, #0]
 4001ff4:	e0bc      	b.n	4002170 <ql_bl_print_internal+0x1a0>
 4001ff6:	7843      	ldrb	r3, [r0, #1]
 4001ff8:	2b66      	cmp	r3, #102	; 0x66
 4001ffa:	f100 0801 	add.w	r8, r0, #1
 4001ffe:	d060      	beq.n	40020c2 <ql_bl_print_internal+0xf2>
 4002000:	d80b      	bhi.n	400201a <ql_bl_print_internal+0x4a>
 4002002:	2b63      	cmp	r3, #99	; 0x63
 4002004:	d056      	beq.n	40020b4 <ql_bl_print_internal+0xe4>
 4002006:	2b64      	cmp	r3, #100	; 0x64
 4002008:	d013      	beq.n	4002032 <ql_bl_print_internal+0x62>
 400200a:	2b25      	cmp	r3, #37	; 0x25
 400200c:	f040 80b0 	bne.w	4002170 <ql_bl_print_internal+0x1a0>
 4002010:	9a01      	ldr	r2, [sp, #4]
 4002012:	1c51      	adds	r1, r2, #1
 4002014:	9101      	str	r1, [sp, #4]
 4002016:	7013      	strb	r3, [r2, #0]
 4002018:	e0aa      	b.n	4002170 <ql_bl_print_internal+0x1a0>
 400201a:	2b70      	cmp	r3, #112	; 0x70
 400201c:	d03a      	beq.n	4002094 <ql_bl_print_internal+0xc4>
 400201e:	d802      	bhi.n	4002026 <ql_bl_print_internal+0x56>
 4002020:	2b6f      	cmp	r3, #111	; 0x6f
 4002022:	d014      	beq.n	400204e <ql_bl_print_internal+0x7e>
 4002024:	e0a4      	b.n	4002170 <ql_bl_print_internal+0x1a0>
 4002026:	2b73      	cmp	r3, #115	; 0x73
 4002028:	f000 8095 	beq.w	4002156 <ql_bl_print_internal+0x186>
 400202c:	2b78      	cmp	r3, #120	; 0x78
 400202e:	d025      	beq.n	400207c <ql_bl_print_internal+0xac>
 4002030:	e09e      	b.n	4002170 <ql_bl_print_internal+0x1a0>
 4002032:	6831      	ldr	r1, [r6, #0]
 4002034:	2900      	cmp	r1, #0
 4002036:	f106 0404 	add.w	r4, r6, #4
 400203a:	da05      	bge.n	4002048 <ql_bl_print_internal+0x78>
 400203c:	9b01      	ldr	r3, [sp, #4]
 400203e:	1c5a      	adds	r2, r3, #1
 4002040:	9201      	str	r2, [sp, #4]
 4002042:	222d      	movs	r2, #45	; 0x2d
 4002044:	701a      	strb	r2, [r3, #0]
 4002046:	4249      	negs	r1, r1
 4002048:	a801      	add	r0, sp, #4
 400204a:	220a      	movs	r2, #10
 400204c:	e012      	b.n	4002074 <ql_bl_print_internal+0xa4>
 400204e:	6831      	ldr	r1, [r6, #0]
 4002050:	2900      	cmp	r1, #0
 4002052:	f106 0404 	add.w	r4, r6, #4
 4002056:	da05      	bge.n	4002064 <ql_bl_print_internal+0x94>
 4002058:	9b01      	ldr	r3, [sp, #4]
 400205a:	1c5a      	adds	r2, r3, #1
 400205c:	9201      	str	r2, [sp, #4]
 400205e:	222d      	movs	r2, #45	; 0x2d
 4002060:	701a      	strb	r2, [r3, #0]
 4002062:	4249      	negs	r1, r1
 4002064:	9b01      	ldr	r3, [sp, #4]
 4002066:	a802      	add	r0, sp, #8
 4002068:	1c5a      	adds	r2, r3, #1
 400206a:	f840 2d04 	str.w	r2, [r0, #-4]!
 400206e:	2230      	movs	r2, #48	; 0x30
 4002070:	701a      	strb	r2, [r3, #0]
 4002072:	2208      	movs	r2, #8
 4002074:	f7ff ff74 	bl	4001f60 <bl_itoa>
 4002078:	4626      	mov	r6, r4
 400207a:	e079      	b.n	4002170 <ql_bl_print_internal+0x1a0>
 400207c:	6831      	ldr	r1, [r6, #0]
 400207e:	2900      	cmp	r1, #0
 4002080:	f106 0404 	add.w	r4, r6, #4
 4002084:	da08      	bge.n	4002098 <ql_bl_print_internal+0xc8>
 4002086:	9b01      	ldr	r3, [sp, #4]
 4002088:	1c5a      	adds	r2, r3, #1
 400208a:	9201      	str	r2, [sp, #4]
 400208c:	222d      	movs	r2, #45	; 0x2d
 400208e:	701a      	strb	r2, [r3, #0]
 4002090:	4249      	negs	r1, r1
 4002092:	e001      	b.n	4002098 <ql_bl_print_internal+0xc8>
 4002094:	6831      	ldr	r1, [r6, #0]
 4002096:	1d34      	adds	r4, r6, #4
 4002098:	9b01      	ldr	r3, [sp, #4]
 400209a:	1c5a      	adds	r2, r3, #1
 400209c:	9201      	str	r2, [sp, #4]
 400209e:	2230      	movs	r2, #48	; 0x30
 40020a0:	701a      	strb	r2, [r3, #0]
 40020a2:	9b01      	ldr	r3, [sp, #4]
 40020a4:	a802      	add	r0, sp, #8
 40020a6:	1c5a      	adds	r2, r3, #1
 40020a8:	f840 2d04 	str.w	r2, [r0, #-4]!
 40020ac:	2278      	movs	r2, #120	; 0x78
 40020ae:	701a      	strb	r2, [r3, #0]
 40020b0:	2210      	movs	r2, #16
 40020b2:	e7df      	b.n	4002074 <ql_bl_print_internal+0xa4>
 40020b4:	9b01      	ldr	r3, [sp, #4]
 40020b6:	7832      	ldrb	r2, [r6, #0]
 40020b8:	1c59      	adds	r1, r3, #1
 40020ba:	9101      	str	r1, [sp, #4]
 40020bc:	3604      	adds	r6, #4
 40020be:	701a      	strb	r2, [r3, #0]
 40020c0:	e056      	b.n	4002170 <ql_bl_print_internal+0x1a0>
 40020c2:	3607      	adds	r6, #7
 40020c4:	f026 0307 	bic.w	r3, r6, #7
 40020c8:	e9d3 4500 	ldrd	r4, r5, [r3]
 40020cc:	f103 0608 	add.w	r6, r3, #8
 40020d0:	2c00      	cmp	r4, #0
 40020d2:	f175 0300 	sbcs.w	r3, r5, #0
 40020d6:	da07      	bge.n	40020e8 <ql_bl_print_internal+0x118>
 40020d8:	9b01      	ldr	r3, [sp, #4]
 40020da:	1c5a      	adds	r2, r3, #1
 40020dc:	9201      	str	r2, [sp, #4]
 40020de:	222d      	movs	r2, #45	; 0x2d
 40020e0:	701a      	strb	r2, [r3, #0]
 40020e2:	4264      	negs	r4, r4
 40020e4:	eb65 0545 	sbc.w	r5, r5, r5, lsl #1
 40020e8:	4620      	mov	r0, r4
 40020ea:	4629      	mov	r1, r5
 40020ec:	f7fe f958 	bl	40003a0 <__aeabi_l2f>
 40020f0:	ee07 0a10 	vmov	s14, r0
 40020f4:	eef7 7a00 	vmov.f32	s15, #112	; 0x70
 40020f8:	eeb4 7ae7 	vcmpe.f32	s14, s15
 40020fc:	eef1 fa10 	vmrs	APSR_nzcv, fpscr
 4002100:	db05      	blt.n	400210e <ql_bl_print_internal+0x13e>
 4002102:	a801      	add	r0, sp, #4
 4002104:	4621      	mov	r1, r4
 4002106:	220a      	movs	r2, #10
 4002108:	f7ff ff2a 	bl	4001f60 <bl_itoa>
 400210c:	e004      	b.n	4002118 <ql_bl_print_internal+0x148>
 400210e:	9b01      	ldr	r3, [sp, #4]
 4002110:	1c5a      	adds	r2, r3, #1
 4002112:	9201      	str	r2, [sp, #4]
 4002114:	2230      	movs	r2, #48	; 0x30
 4002116:	701a      	strb	r2, [r3, #0]
 4002118:	9b01      	ldr	r3, [sp, #4]
 400211a:	4920      	ldr	r1, [pc, #128]	; (400219c <ql_bl_print_internal+0x1cc>)
 400211c:	1c5a      	adds	r2, r3, #1
 400211e:	9201      	str	r2, [sp, #4]
 4002120:	222e      	movs	r2, #46	; 0x2e
 4002122:	701a      	strb	r2, [r3, #0]
 4002124:	2200      	movs	r2, #0
 4002126:	750a      	strb	r2, [r1, #20]
 4002128:	2304      	movs	r3, #4
 400212a:	460d      	mov	r5, r1
 400212c:	200a      	movs	r0, #10
 400212e:	fb92 f1f0 	sdiv	r1, r2, r0
 4002132:	fb00 2011 	mls	r0, r0, r1, r2
 4002136:	18ec      	adds	r4, r5, r3
 4002138:	3030      	adds	r0, #48	; 0x30
 400213a:	3b01      	subs	r3, #1
 400213c:	460a      	mov	r2, r1
 400213e:	73e0      	strb	r0, [r4, #15]
 4002140:	d1f4      	bne.n	400212c <ql_bl_print_internal+0x15c>
 4002142:	4a17      	ldr	r2, [pc, #92]	; (40021a0 <ql_bl_print_internal+0x1d0>)
 4002144:	f812 3f01 	ldrb.w	r3, [r2, #1]!
 4002148:	b193      	cbz	r3, 4002170 <ql_bl_print_internal+0x1a0>
 400214a:	9901      	ldr	r1, [sp, #4]
 400214c:	700b      	strb	r3, [r1, #0]
 400214e:	9b01      	ldr	r3, [sp, #4]
 4002150:	3301      	adds	r3, #1
 4002152:	9301      	str	r3, [sp, #4]
 4002154:	e7f6      	b.n	4002144 <ql_bl_print_internal+0x174>
 4002156:	6833      	ldr	r3, [r6, #0]
 4002158:	1d31      	adds	r1, r6, #4
 400215a:	f813 2b01 	ldrb.w	r2, [r3], #1
 400215e:	b132      	cbz	r2, 400216e <ql_bl_print_internal+0x19e>
 4002160:	9a01      	ldr	r2, [sp, #4]
 4002162:	1c50      	adds	r0, r2, #1
 4002164:	9001      	str	r0, [sp, #4]
 4002166:	f813 0c01 	ldrb.w	r0, [r3, #-1]
 400216a:	7010      	strb	r0, [r2, #0]
 400216c:	e7f5      	b.n	400215a <ql_bl_print_internal+0x18a>
 400216e:	460e      	mov	r6, r1
 4002170:	f108 0001 	add.w	r0, r8, #1
 4002174:	e733      	b.n	4001fde <ql_bl_print_internal+0xe>
 4002176:	9a01      	ldr	r2, [sp, #4]
 4002178:	7013      	strb	r3, [r2, #0]
 400217a:	9701      	str	r7, [sp, #4]
 400217c:	9b01      	ldr	r3, [sp, #4]
 400217e:	7819      	ldrb	r1, [r3, #0]
 4002180:	b131      	cbz	r1, 4002190 <ql_bl_print_internal+0x1c0>
 4002182:	2000      	movs	r0, #0
 4002184:	f7fe fe7a 	bl	4000e7c <hal_uart_put_char>
 4002188:	9b01      	ldr	r3, [sp, #4]
 400218a:	3301      	adds	r3, #1
 400218c:	9301      	str	r3, [sp, #4]
 400218e:	e7f5      	b.n	400217c <ql_bl_print_internal+0x1ac>
 4002190:	b002      	add	sp, #8
 4002192:	e8bd 81f0 	ldmia.w	sp!, {r4, r5, r6, r7, r8, pc}
 4002196:	bf00      	nop
 4002198:	00000496 	muleq	r0, r6, r4
 400219c:	00000481 	andeq	r0, r0, r1, lsl #9
 40021a0:	00000490 	muleq	r0, r0, r4

040021a4 <ql_bl_print>:
 40021a4:	b40f      	push	{r0, r1, r2, r3}
 40021a6:	b507      	push	{r0, r1, r2, lr}
 40021a8:	a904      	add	r1, sp, #16
 40021aa:	f851 0b04 	ldr.w	r0, [r1], #4
 40021ae:	9101      	str	r1, [sp, #4]
 40021b0:	f7ff ff0e 	bl	4001fd0 <ql_bl_print_internal>
 40021b4:	b003      	add	sp, #12
 40021b6:	f85d eb04 	ldr.w	lr, [sp], #4
 40021ba:	b004      	add	sp, #16
 40021bc:	4770      	bx	lr

040021be <bl_custom_rom_baseaddr>:
 40021be:	f04f 6000 	mov.w	r0, #134217728	; 0x8000000
 40021c2:	4770      	bx	lr

040021c4 <bl_custom_cm4_start_address>:
 40021c4:	4800      	ldr	r0, [pc, #0]	; (40021c8 <bl_custom_cm4_start_address+0x4>)
 40021c6:	4770      	bx	lr
 40021c8:	08012000 	stmdaeq	r1, {sp}

040021cc <bl_custom_fota_start_address>:
 40021cc:	4800      	ldr	r0, [pc, #0]	; (40021d0 <bl_custom_fota_start_address+0x4>)
 40021ce:	4770      	bx	lr
 40021d0:	082e6000 	stmdaeq	lr!, {sp, lr}

040021d4 <bl_custom_fota_size>:
 40021d4:	f44f 203f 	mov.w	r0, #782336	; 0xbf000
 40021d8:	4770      	bx	lr
	...

040021dc <bl_hardware_init>:
 40021dc:	b530      	push	{r4, r5, lr}
 40021de:	2400      	movs	r4, #0
 40021e0:	b085      	sub	sp, #20
 40021e2:	f007 fce3 	bl	4009bac <hal_clock_init>
 40021e6:	2503      	movs	r5, #3
 40021e8:	2309      	movs	r3, #9
 40021ea:	a901      	add	r1, sp, #4
 40021ec:	4620      	mov	r0, r4
 40021ee:	f88d 3004 	strb.w	r3, [sp, #4]
 40021f2:	f88d 4007 	strb.w	r4, [sp, #7]
 40021f6:	f88d 4006 	strb.w	r4, [sp, #6]
 40021fa:	f88d 5005 	strb.w	r5, [sp, #5]
 40021fe:	f7fe fdcb 	bl	4000d98 <hal_uart_init>
 4002202:	4b2d      	ldr	r3, [pc, #180]	; (40022b8 <bl_hardware_init+0xdc>)
 4002204:	492d      	ldr	r1, [pc, #180]	; (40022bc <bl_hardware_init+0xe0>)
 4002206:	f8d3 2088 	ldr.w	r2, [r3, #136]	; 0x88
 400220a:	f442 0270 	orr.w	r2, r2, #15728640	; 0xf00000
 400220e:	f8c3 2088 	str.w	r2, [r3, #136]	; 0x88
 4002212:	4620      	mov	r0, r4
 4002214:	f7ff fed4 	bl	4001fc0 <bl_print>
 4002218:	4620      	mov	r0, r4
 400221a:	f7ff fed4 	bl	4001fc6 <bl_set_debug_level>
 400221e:	4620      	mov	r0, r4
 4002220:	4927      	ldr	r1, [pc, #156]	; (40022c0 <bl_hardware_init+0xe4>)
 4002222:	f7ff fecd 	bl	4001fc0 <bl_print>
 4002226:	4927      	ldr	r1, [pc, #156]	; (40022c4 <bl_hardware_init+0xe8>)
 4002228:	4620      	mov	r0, r4
 400222a:	f7ff fec9 	bl	4001fc0 <bl_print>
 400222e:	f7ff fb0f 	bl	4001850 <hal_rtc_init>
 4002232:	4925      	ldr	r1, [pc, #148]	; (40022c8 <bl_hardware_init+0xec>)
 4002234:	4620      	mov	r0, r4
 4002236:	f7ff fec3 	bl	4001fc0 <bl_print>
 400223a:	f006 f961 	bl	4008500 <hal_emi_configure>
 400223e:	4620      	mov	r0, r4
 4002240:	4922      	ldr	r1, [pc, #136]	; (40022cc <bl_hardware_init+0xf0>)
 4002242:	f7ff febd 	bl	4001fc0 <bl_print>
 4002246:	f006 ffc3 	bl	40091d0 <hal_clock_set_pll_dcm_init>
 400224a:	4621      	mov	r1, r4
 400224c:	2013      	movs	r0, #19
 400224e:	f006 ff79 	bl	4009144 <hal_clock_get_freq_meter>
 4002252:	491f      	ldr	r1, [pc, #124]	; (40022d0 <bl_hardware_init+0xf4>)
 4002254:	4602      	mov	r2, r0
 4002256:	4620      	mov	r0, r4
 4002258:	f7ff feb2 	bl	4001fc0 <bl_print>
 400225c:	491d      	ldr	r1, [pc, #116]	; (40022d4 <bl_hardware_init+0xf8>)
 400225e:	4620      	mov	r0, r4
 4002260:	f7ff feae 	bl	4001fc0 <bl_print>
 4002264:	f006 fa38 	bl	40086d8 <hal_emi_configure_advanced>
 4002268:	491b      	ldr	r1, [pc, #108]	; (40022d8 <bl_hardware_init+0xfc>)
 400226a:	4620      	mov	r0, r4
 400226c:	f7ff fea8 	bl	4001fc0 <bl_print>
 4002270:	f005 fe9e 	bl	4007fb0 <custom_setSFIExt>
 4002274:	4919      	ldr	r1, [pc, #100]	; (40022dc <bl_hardware_init+0x100>)
 4002276:	4620      	mov	r0, r4
 4002278:	f7ff fea2 	bl	4001fc0 <bl_print>
 400227c:	f7fe fd38 	bl	4000cf0 <hal_flash_init>
 4002280:	4917      	ldr	r1, [pc, #92]	; (40022e0 <bl_hardware_init+0x104>)
 4002282:	4620      	mov	r0, r4
 4002284:	f7ff fe9c 	bl	4001fc0 <bl_print>
 4002288:	f7fe fd32 	bl	4000cf0 <hal_flash_init>
 400228c:	231e      	movs	r3, #30
 400228e:	a802      	add	r0, sp, #8
 4002290:	f88d 4008 	strb.w	r4, [sp, #8]
 4002294:	9303      	str	r3, [sp, #12]
 4002296:	f7ff fc9f 	bl	4001bd8 <hal_wdt_init>
 400229a:	1e02      	subs	r2, r0, #0
 400229c:	da03      	bge.n	40022a6 <bl_hardware_init+0xca>
 400229e:	4628      	mov	r0, r5
 40022a0:	4910      	ldr	r1, [pc, #64]	; (40022e4 <bl_hardware_init+0x108>)
 40022a2:	f7ff fe8d 	bl	4001fc0 <bl_print>
 40022a6:	4810      	ldr	r0, [pc, #64]	; (40022e8 <bl_hardware_init+0x10c>)
 40022a8:	f7ff fcf0 	bl	4001c8c <hal_wdt_enable>
 40022ac:	2000      	movs	r0, #0
 40022ae:	490f      	ldr	r1, [pc, #60]	; (40022ec <bl_hardware_init+0x110>)
 40022b0:	f7ff fe86 	bl	4001fc0 <bl_print>
 40022b4:	b005      	add	sp, #20
 40022b6:	bd30      	pop	{r4, r5, pc}
 40022b8:	e000ed00 	and	lr, r0, r0, lsl #26
 40022bc:	04005d2a 	streq	r5, [r0], #-3370	; 0xd2a
 40022c0:	04005d4a 	streq	r5, [r0], #-3402	; 0xd4a
 40022c4:	04005d59 	streq	r5, [r0], #-3417	; 0xd59
 40022c8:	04005d68 	streq	r5, [r0], #-3432	; 0xd68
 40022cc:	04005d7d 	streq	r5, [r0], #-3453	; 0xd7d
 40022d0:	04005d9b 	streq	r5, [r0], #-3483	; 0xd9b
 40022d4:	04005db0 	streq	r5, [r0], #-3504	; 0xdb0
 40022d8:	04005dce 	streq	r5, [r0], #-3534	; 0xdce
 40022dc:	04005de2 	streq	r5, [r0], #-3554	; 0xde2
 40022e0:	04005dee 	streq	r5, [r0], #-3566	; 0xdee
 40022e4:	04005e00 	streq	r5, [r0], #-3584	; 0xe00
 40022e8:	cafebabe 	bgt	3fb0de8 <__bss_end__+0x3fb0724>
 40022ec:	04005e15 	streq	r5, [r0], #-3605	; 0xe15

040022f0 <bl_start_user_code>:
 40022f0:	b510      	push	{r4, lr}
 40022f2:	f7ff ff67 	bl	40021c4 <bl_custom_cm4_start_address>
 40022f6:	4604      	mov	r4, r0
 40022f8:	4622      	mov	r2, r4
 40022fa:	2000      	movs	r0, #0
 40022fc:	4903      	ldr	r1, [pc, #12]	; (400230c <bl_start_user_code+0x1c>)
 40022fe:	f7ff fe5f 	bl	4001fc0 <bl_print>
 4002302:	4620      	mov	r0, r4
 4002304:	e8bd 4010 	ldmia.w	sp!, {r4, lr}
 4002308:	f7fd be8f 	b.w	400002a <JumpCmd>
 400230c:	04005e2e 	streq	r5, [r0], #-3630	; 0xe2e

04002310 <main>:
 4002310:	b508      	push	{r3, lr}
 4002312:	f7ff ff63 	bl	40021dc <bl_hardware_init>
 4002316:	f000 f973 	bl	4002600 <bl_fota_process>
 400231a:	f7ff ffe9 	bl	40022f0 <bl_start_user_code>
 400231e:	2000      	movs	r0, #0
 4002320:	bd08      	pop	{r3, pc}
	...

04002324 <bl_fota_write_update_info>:
 4002324:	e92d 41f0 	stmdb	sp!, {r4, r5, r6, r7, r8, lr}
 4002328:	460f      	mov	r7, r1
 400232a:	4680      	mov	r8, r0
 400232c:	f7ff ff4e 	bl	40021cc <bl_custom_fota_start_address>
 4002330:	4604      	mov	r4, r0
 4002332:	f7ff ff4f 	bl	40021d4 <bl_custom_fota_size>
 4002336:	4420      	add	r0, r4
 4002338:	f5a0 7400 	sub.w	r4, r0, #512	; 0x200
 400233c:	f7ff ff3f 	bl	40021be <bl_custom_rom_baseaddr>
 4002340:	1a24      	subs	r4, r4, r0
 4002342:	4620      	mov	r0, r4
 4002344:	f7fe fcbc 	bl	4000cc0 <get_block_size_from_address>
 4002348:	2801      	cmp	r0, #1
 400234a:	4605      	mov	r5, r0
 400234c:	d006      	beq.n	400235c <bl_fota_write_update_info+0x38>
 400234e:	2802      	cmp	r0, #2
 4002350:	bf0c      	ite	eq
 4002352:	f44f 3680 	moveq.w	r6, #65536	; 0x10000
 4002356:	f44f 5680 	movne.w	r6, #4096	; 0x1000
 400235a:	e001      	b.n	4002360 <bl_fota_write_update_info+0x3c>
 400235c:	f44f 4600 	mov.w	r6, #32768	; 0x8000
 4002360:	4276      	negs	r6, r6
 4002362:	4026      	ands	r6, r4
 4002364:	f7fe fcc4 	bl	4000cf0 <hal_flash_init>
 4002368:	2000      	movs	r0, #0
 400236a:	491a      	ldr	r1, [pc, #104]	; (40023d4 <bl_fota_write_update_info+0xb0>)
 400236c:	4632      	mov	r2, r6
 400236e:	4623      	mov	r3, r4
 4002370:	f7ff fe26 	bl	4001fc0 <bl_print>
 4002374:	4629      	mov	r1, r5
 4002376:	4630      	mov	r0, r6
 4002378:	f7fe fcc0 	bl	4000cfc <hal_flash_erase>
 400237c:	4605      	mov	r5, r0
 400237e:	b168      	cbz	r0, 400239c <bl_fota_write_update_info+0x78>
 4002380:	462a      	mov	r2, r5
 4002382:	2000      	movs	r0, #0
 4002384:	4914      	ldr	r1, [pc, #80]	; (40023d8 <bl_fota_write_update_info+0xb4>)
 4002386:	f7ff fe1b 	bl	4001fc0 <bl_print>
 400238a:	2000      	movs	r0, #0
 400238c:	4913      	ldr	r1, [pc, #76]	; (40023dc <bl_fota_write_update_info+0xb8>)
 400238e:	4a14      	ldr	r2, [pc, #80]	; (40023e0 <bl_fota_write_update_info+0xbc>)
 4002390:	23be      	movs	r3, #190	; 0xbe
 4002392:	f7ff fe15 	bl	4001fc0 <bl_print>
 4002396:	2008      	movs	r0, #8
 4002398:	e8bd 81f0 	ldmia.w	sp!, {r4, r5, r6, r7, r8, pc}
 400239c:	4620      	mov	r0, r4
 400239e:	4641      	mov	r1, r8
 40023a0:	463a      	mov	r2, r7
 40023a2:	f7fe fcd1 	bl	4000d48 <hal_flash_write>
 40023a6:	4606      	mov	r6, r0
 40023a8:	b168      	cbz	r0, 40023c6 <bl_fota_write_update_info+0xa2>
 40023aa:	4628      	mov	r0, r5
 40023ac:	4632      	mov	r2, r6
 40023ae:	490d      	ldr	r1, [pc, #52]	; (40023e4 <bl_fota_write_update_info+0xc0>)
 40023b0:	f7ff fe06 	bl	4001fc0 <bl_print>
 40023b4:	4628      	mov	r0, r5
 40023b6:	4909      	ldr	r1, [pc, #36]	; (40023dc <bl_fota_write_update_info+0xb8>)
 40023b8:	4a09      	ldr	r2, [pc, #36]	; (40023e0 <bl_fota_write_update_info+0xbc>)
 40023ba:	23c4      	movs	r3, #196	; 0xc4
 40023bc:	f7ff fe00 	bl	4001fc0 <bl_print>
 40023c0:	2004      	movs	r0, #4
 40023c2:	e8bd 81f0 	ldmia.w	sp!, {r4, r5, r6, r7, r8, pc}
 40023c6:	4908      	ldr	r1, [pc, #32]	; (40023e8 <bl_fota_write_update_info+0xc4>)
 40023c8:	4622      	mov	r2, r4
 40023ca:	f7ff fdf9 	bl	4001fc0 <bl_print>
 40023ce:	4630      	mov	r0, r6
 40023d0:	e8bd 81f0 	ldmia.w	sp!, {r4, r5, r6, r7, r8, pc}
 40023d4:	0400607d 	streq	r6, [r0], #-125	; 0x7d
 40023d8:	040060ba 	streq	r6, [r0], #-186	; 0xba
 40023dc:	04005eba 	streq	r5, [r0], #-3770	; 0xeba
 40023e0:	04005e40 	streq	r5, [r0], #-3648	; 0xe40
 40023e4:	040060f2 	streq	r6, [r0], #-242	; 0xf2
 40023e8:	0400612a 	streq	r6, [r0], #-298	; 0x12a

040023ec <bl_fota_write_marker>:
 40023ec:	b500      	push	{lr}
 40023ee:	b091      	sub	sp, #68	; 0x44
 40023f0:	2240      	movs	r2, #64	; 0x40
 40023f2:	4668      	mov	r0, sp
 40023f4:	2100      	movs	r1, #0
 40023f6:	f003 f8db 	bl	40055b0 <memset>
 40023fa:	2301      	movs	r3, #1
 40023fc:	9300      	str	r3, [sp, #0]
 40023fe:	2300      	movs	r3, #0
 4002400:	9301      	str	r3, [sp, #4]
 4002402:	9303      	str	r3, [sp, #12]
 4002404:	4668      	mov	r0, sp
 4002406:	4b07      	ldr	r3, [pc, #28]	; (4002424 <bl_fota_write_marker+0x38>)
 4002408:	9304      	str	r3, [sp, #16]
 400240a:	2140      	movs	r1, #64	; 0x40
 400240c:	9305      	str	r3, [sp, #20]
 400240e:	9306      	str	r3, [sp, #24]
 4002410:	9307      	str	r3, [sp, #28]
 4002412:	9308      	str	r3, [sp, #32]
 4002414:	9309      	str	r3, [sp, #36]	; 0x24
 4002416:	930a      	str	r3, [sp, #40]	; 0x28
 4002418:	930b      	str	r3, [sp, #44]	; 0x2c
 400241a:	f7ff ff83 	bl	4002324 <bl_fota_write_update_info>
 400241e:	b011      	add	sp, #68	; 0x44
 4002420:	f85d fb04 	ldr.w	pc, [sp], #4
 4002424:	544e5546 	strbpl	r5, [lr], #-1350	; 0x546

04002428 <bl_fota_write_update_status>:
 4002428:	b510      	push	{r4, lr}
 400242a:	b090      	sub	sp, #64	; 0x40
 400242c:	4604      	mov	r4, r0
 400242e:	2240      	movs	r2, #64	; 0x40
 4002430:	4668      	mov	r0, sp
 4002432:	2100      	movs	r1, #0
 4002434:	f003 f8bc 	bl	40055b0 <memset>
 4002438:	2300      	movs	r3, #0
 400243a:	4668      	mov	r0, sp
 400243c:	2140      	movs	r1, #64	; 0x40
 400243e:	9304      	str	r3, [sp, #16]
 4002440:	9305      	str	r3, [sp, #20]
 4002442:	9306      	str	r3, [sp, #24]
 4002444:	9307      	str	r3, [sp, #28]
 4002446:	9308      	str	r3, [sp, #32]
 4002448:	9309      	str	r3, [sp, #36]	; 0x24
 400244a:	930a      	str	r3, [sp, #40]	; 0x28
 400244c:	930b      	str	r3, [sp, #44]	; 0x2c
 400244e:	9401      	str	r4, [sp, #4]
 4002450:	f7ff ff68 	bl	4002324 <bl_fota_write_update_info>
 4002454:	b010      	add	sp, #64	; 0x40
 4002456:	bd10      	pop	{r4, pc}

04002458 <bl_fota_read_update_info>:
 4002458:	b570      	push	{r4, r5, r6, lr}
 400245a:	460c      	mov	r4, r1
 400245c:	4606      	mov	r6, r0
 400245e:	f7ff feb5 	bl	40021cc <bl_custom_fota_start_address>
 4002462:	4605      	mov	r5, r0
 4002464:	f7ff feb6 	bl	40021d4 <bl_custom_fota_size>
 4002468:	4428      	add	r0, r5
 400246a:	f5a0 7500 	sub.w	r5, r0, #512	; 0x200
 400246e:	f7ff fea6 	bl	40021be <bl_custom_rom_baseaddr>
 4002472:	1a2d      	subs	r5, r5, r0
 4002474:	4622      	mov	r2, r4
 4002476:	4628      	mov	r0, r5
 4002478:	4631      	mov	r1, r6
 400247a:	f7fe fc53 	bl	4000d24 <hal_flash_read>
 400247e:	4604      	mov	r4, r0
 4002480:	b168      	cbz	r0, 400249e <bl_fota_read_update_info+0x46>
 4002482:	f240 2361 	movw	r3, #609	; 0x261
 4002486:	2000      	movs	r0, #0
 4002488:	4908      	ldr	r1, [pc, #32]	; (40024ac <bl_fota_read_update_info+0x54>)
 400248a:	4a09      	ldr	r2, [pc, #36]	; (40024b0 <bl_fota_read_update_info+0x58>)
 400248c:	f7ff fd98 	bl	4001fc0 <bl_print>
 4002490:	2000      	movs	r0, #0
 4002492:	4908      	ldr	r1, [pc, #32]	; (40024b4 <bl_fota_read_update_info+0x5c>)
 4002494:	4622      	mov	r2, r4
 4002496:	f7ff fd93 	bl	4001fc0 <bl_print>
 400249a:	2007      	movs	r0, #7
 400249c:	bd70      	pop	{r4, r5, r6, pc}
 400249e:	4906      	ldr	r1, [pc, #24]	; (40024b8 <bl_fota_read_update_info+0x60>)
 40024a0:	462a      	mov	r2, r5
 40024a2:	f7ff fd8d 	bl	4001fc0 <bl_print>
 40024a6:	4620      	mov	r0, r4
 40024a8:	bd70      	pop	{r4, r5, r6, pc}
 40024aa:	bf00      	nop
 40024ac:	04005eba 	streq	r5, [r0], #-3770	; 0xeba
 40024b0:	04005e5a 	streq	r5, [r0], #-3674	; 0xe5a
 40024b4:	04006201 	streq	r6, [r0], #-513	; 0x201
 40024b8:	04006548 	streq	r6, [r0], #-1352	; 0x548

040024bc <bl_fota_is_updating>:
 40024bc:	b510      	push	{r4, lr}
 40024be:	b090      	sub	sp, #64	; 0x40
 40024c0:	4668      	mov	r0, sp
 40024c2:	2140      	movs	r1, #64	; 0x40
 40024c4:	f7ff ffc8 	bl	4002458 <bl_fota_read_update_info>
 40024c8:	b140      	cbz	r0, 40024dc <bl_fota_is_updating+0x20>
 40024ca:	2000      	movs	r0, #0
 40024cc:	490d      	ldr	r1, [pc, #52]	; (4002504 <bl_fota_is_updating+0x48>)
 40024ce:	4a0e      	ldr	r2, [pc, #56]	; (4002508 <bl_fota_is_updating+0x4c>)
 40024d0:	f240 2375 	movw	r3, #629	; 0x275
 40024d4:	f7ff fd74 	bl	4001fc0 <bl_print>
 40024d8:	2400      	movs	r4, #0
 40024da:	e00f      	b.n	40024fc <bl_fota_is_updating+0x40>
 40024dc:	2401      	movs	r4, #1
 40024de:	ab00      	add	r3, sp, #0
 40024e0:	4403      	add	r3, r0
 40024e2:	3004      	adds	r0, #4
 40024e4:	691a      	ldr	r2, [r3, #16]
 40024e6:	4b09      	ldr	r3, [pc, #36]	; (400250c <bl_fota_is_updating+0x50>)
 40024e8:	429a      	cmp	r2, r3
 40024ea:	bf18      	it	ne
 40024ec:	2400      	movne	r4, #0
 40024ee:	2820      	cmp	r0, #32
 40024f0:	d1f5      	bne.n	40024de <bl_fota_is_updating+0x22>
 40024f2:	b11c      	cbz	r4, 40024fc <bl_fota_is_updating+0x40>
 40024f4:	2000      	movs	r0, #0
 40024f6:	4906      	ldr	r1, [pc, #24]	; (4002510 <bl_fota_is_updating+0x54>)
 40024f8:	f7ff fd62 	bl	4001fc0 <bl_print>
 40024fc:	4620      	mov	r0, r4
 40024fe:	b010      	add	sp, #64	; 0x40
 4002500:	bd10      	pop	{r4, pc}
 4002502:	bf00      	nop
 4002504:	04005eba 	streq	r5, [r0], #-3770	; 0xeba
 4002508:	0400673b 	streq	r6, [r0], #-1851	; 0x73b
 400250c:	544e5546 	strbpl	r5, [lr], #-1350	; 0x546
 4002510:	04006564 	streq	r6, [r0], #-1380	; 0x564

04002514 <bl_fota_is_triggered>:
 4002514:	b513      	push	{r0, r1, r4, lr}
 4002516:	2108      	movs	r1, #8
 4002518:	4668      	mov	r0, sp
 400251a:	f7ff ff9d 	bl	4002458 <bl_fota_read_update_info>
 400251e:	b140      	cbz	r0, 4002532 <bl_fota_is_triggered+0x1e>
 4002520:	490b      	ldr	r1, [pc, #44]	; (4002550 <bl_fota_is_triggered+0x3c>)
 4002522:	4a0c      	ldr	r2, [pc, #48]	; (4002554 <bl_fota_is_triggered+0x40>)
 4002524:	2000      	movs	r0, #0
 4002526:	f44f 7326 	mov.w	r3, #664	; 0x298
 400252a:	f7ff fd49 	bl	4001fc0 <bl_print>
 400252e:	2000      	movs	r0, #0
 4002530:	e00b      	b.n	400254a <bl_fota_is_triggered+0x36>
 4002532:	9b00      	ldr	r3, [sp, #0]
 4002534:	4a08      	ldr	r2, [pc, #32]	; (4002558 <bl_fota_is_triggered+0x44>)
 4002536:	f023 437f 	bic.w	r3, r3, #4278190080	; 0xff000000
 400253a:	4293      	cmp	r3, r2
 400253c:	d004      	beq.n	4002548 <bl_fota_is_triggered+0x34>
 400253e:	4907      	ldr	r1, [pc, #28]	; (400255c <bl_fota_is_triggered+0x48>)
 4002540:	4a04      	ldr	r2, [pc, #16]	; (4002554 <bl_fota_is_triggered+0x40>)
 4002542:	f240 239d 	movw	r3, #669	; 0x29d
 4002546:	e7f0      	b.n	400252a <bl_fota_is_triggered+0x16>
 4002548:	2001      	movs	r0, #1
 400254a:	b002      	add	sp, #8
 400254c:	bd10      	pop	{r4, pc}
 400254e:	bf00      	nop
 4002550:	04005eba 	streq	r5, [r0], #-3770	; 0xeba
 4002554:	04006759 	streq	r6, [r0], #-1881	; 0x759
 4002558:	004d4d4d 	subeq	r4, sp, sp, asr #26
 400255c:	0400660b 	streq	r6, [r0], #-1547	; 0x60b

04002560 <bl_rock_fota_update_main>:
 4002560:	b513      	push	{r0, r1, r4, lr}
 4002562:	f7ff ffab 	bl	40024bc <bl_fota_is_updating>
 4002566:	b928      	cbnz	r0, 4002574 <bl_rock_fota_update_main+0x14>
 4002568:	f7ff ff40 	bl	40023ec <bl_fota_write_marker>
 400256c:	4604      	mov	r4, r0
 400256e:	b998      	cbnz	r0, 4002598 <bl_rock_fota_update_main+0x38>
 4002570:	2001      	movs	r0, #1
 4002572:	e004      	b.n	400257e <bl_rock_fota_update_main+0x1e>
 4002574:	2001      	movs	r0, #1
 4002576:	491a      	ldr	r1, [pc, #104]	; (40025e0 <bl_rock_fota_update_main+0x80>)
 4002578:	f7ff fd22 	bl	4001fc0 <bl_print>
 400257c:	2000      	movs	r0, #0
 400257e:	f7ff fcb1 	bl	4001ee4 <rock_main>
 4002582:	b2c4      	uxtb	r4, r0
 4002584:	2001      	movs	r0, #1
 4002586:	b124      	cbz	r4, 4002592 <bl_rock_fota_update_main+0x32>
 4002588:	4916      	ldr	r1, [pc, #88]	; (40025e4 <bl_rock_fota_update_main+0x84>)
 400258a:	4622      	mov	r2, r4
 400258c:	f7ff fd18 	bl	4001fc0 <bl_print>
 4002590:	e002      	b.n	4002598 <bl_rock_fota_update_main+0x38>
 4002592:	4915      	ldr	r1, [pc, #84]	; (40025e8 <bl_rock_fota_update_main+0x88>)
 4002594:	f7ff fd14 	bl	4001fc0 <bl_print>
 4002598:	9401      	str	r4, [sp, #4]
 400259a:	f7fe fba9 	bl	4000cf0 <hal_flash_init>
 400259e:	1e01      	subs	r1, r0, #0
 40025a0:	da01      	bge.n	40025a6 <bl_rock_fota_update_main+0x46>
 40025a2:	4812      	ldr	r0, [pc, #72]	; (40025ec <bl_rock_fota_update_main+0x8c>)
 40025a4:	e010      	b.n	40025c8 <bl_rock_fota_update_main+0x68>
 40025a6:	2100      	movs	r1, #0
 40025a8:	4811      	ldr	r0, [pc, #68]	; (40025f0 <bl_rock_fota_update_main+0x90>)
 40025aa:	f7fe fba7 	bl	4000cfc <hal_flash_erase>
 40025ae:	1e01      	subs	r1, r0, #0
 40025b0:	da01      	bge.n	40025b6 <bl_rock_fota_update_main+0x56>
 40025b2:	4810      	ldr	r0, [pc, #64]	; (40025f4 <bl_rock_fota_update_main+0x94>)
 40025b4:	e008      	b.n	40025c8 <bl_rock_fota_update_main+0x68>
 40025b6:	a901      	add	r1, sp, #4
 40025b8:	480d      	ldr	r0, [pc, #52]	; (40025f0 <bl_rock_fota_update_main+0x90>)
 40025ba:	2204      	movs	r2, #4
 40025bc:	f7fe fbc4 	bl	4000d48 <hal_flash_write>
 40025c0:	1e01      	subs	r1, r0, #0
 40025c2:	bfb4      	ite	lt
 40025c4:	480c      	ldrlt	r0, [pc, #48]	; (40025f8 <bl_rock_fota_update_main+0x98>)
 40025c6:	480d      	ldrge	r0, [pc, #52]	; (40025fc <bl_rock_fota_update_main+0x9c>)
 40025c8:	f7ff fcbe 	bl	4001f48 <printf>
 40025cc:	4620      	mov	r0, r4
 40025ce:	f7ff ff2b 	bl	4002428 <bl_fota_write_update_status>
 40025d2:	4604      	mov	r4, r0
 40025d4:	f7ff fb52 	bl	4001c7c <hal_wdt_software_reset>
 40025d8:	4620      	mov	r0, r4
 40025da:	b002      	add	sp, #8
 40025dc:	bd10      	pop	{r4, pc}
 40025de:	bf00      	nop
 40025e0:	04006577 	streq	r6, [r0], #-1399	; 0x577
 40025e4:	04006619 	streq	r6, [r0], #-1561	; 0x619
 40025e8:	0400663a 	streq	r6, [r0], #-1594	; 0x63a
 40025ec:	04006655 	streq	r6, [r0], #-1621	; 0x655
 40025f0:	002c5000 	eoreq	r5, ip, r0
 40025f4:	04006685 	streq	r6, [r0], #-1669	; 0x685
 40025f8:	040066b6 	streq	r6, [r0], #-1718	; 0x6b6
 40025fc:	040066e7 	streq	r6, [r0], #-1767	; 0x6e7

04002600 <bl_fota_process>:
 4002600:	b508      	push	{r3, lr}
 4002602:	f7ff ff5b 	bl	40024bc <bl_fota_is_updating>
 4002606:	b178      	cbz	r0, 4002628 <bl_fota_process+0x28>
 4002608:	480c      	ldr	r0, [pc, #48]	; (400263c <bl_fota_process+0x3c>)
 400260a:	f7ff fb15 	bl	4001c38 <hal_wdt_feed>
 400260e:	2000      	movs	r0, #0
 4002610:	490b      	ldr	r1, [pc, #44]	; (4002640 <bl_fota_process+0x40>)
 4002612:	f7ff fcd5 	bl	4001fc0 <bl_print>
 4002616:	f7ff ffa3 	bl	4002560 <bl_rock_fota_update_main>
 400261a:	4602      	mov	r2, r0
 400261c:	b948      	cbnz	r0, 4002632 <bl_fota_process+0x32>
 400261e:	4909      	ldr	r1, [pc, #36]	; (4002644 <bl_fota_process+0x44>)
 4002620:	e8bd 4008 	ldmia.w	sp!, {r3, lr}
 4002624:	f7ff bccc 	b.w	4001fc0 <bl_print>
 4002628:	f7ff ff74 	bl	4002514 <bl_fota_is_triggered>
 400262c:	2800      	cmp	r0, #0
 400262e:	d1eb      	bne.n	4002608 <bl_fota_process+0x8>
 4002630:	bd08      	pop	{r3, pc}
 4002632:	2000      	movs	r0, #0
 4002634:	4904      	ldr	r1, [pc, #16]	; (4002648 <bl_fota_process+0x48>)
 4002636:	f7ff fcc3 	bl	4001fc0 <bl_print>
 400263a:	e7fe      	b.n	400263a <bl_fota_process+0x3a>
 400263c:	deadcafe 	mcrle	10, 5, ip, cr13, cr14, {7}
 4002640:	04006701 	streq	r6, [r0], #-1793	; 0x701
 4002644:	04006716 	streq	r6, [r0], #-1814	; 0x716
 4002648:	0400672c 	streq	r6, [r0], #-1836	; 0x72c

0400264c <chip_is_mt2625E3>:
 400264c:	f04f 4300 	mov.w	r3, #2147483648	; 0x80000000
 4002650:	f242 6125 	movw	r1, #9765	; 0x2625
 4002654:	689a      	ldr	r2, [r3, #8]
 4002656:	428a      	cmp	r2, r1
 4002658:	d106      	bne.n	4002668 <chip_is_mt2625E3+0x1c>
 400265a:	6818      	ldr	r0, [r3, #0]
 400265c:	f648 2310 	movw	r3, #35344	; 0x8a10
 4002660:	1ac3      	subs	r3, r0, r3
 4002662:	4258      	negs	r0, r3
 4002664:	4158      	adcs	r0, r3
 4002666:	4770      	bx	lr
 4002668:	2000      	movs	r0, #0
 400266a:	4770      	bx	lr

0400266c <apply_patch_from_rom>:
 400266c:	e92d 4ff0 	stmdb	sp!, {r4, r5, r6, r7, r8, r9, sl, fp, lr}
 4002670:	b0e3      	sub	sp, #396	; 0x18c
 4002672:	9c6c      	ldr	r4, [sp, #432]	; 0x1b0
 4002674:	9109      	str	r1, [sp, #36]	; 0x24
 4002676:	9207      	str	r2, [sp, #28]
 4002678:	9308      	str	r3, [sp, #32]
 400267a:	4622      	mov	r2, r4
 400267c:	a90f      	add	r1, sp, #60	; 0x3c
 400267e:	2314      	movs	r3, #20
 4002680:	f8dd a1b8 	ldr.w	sl, [sp, #440]	; 0x1b8
 4002684:	9003      	str	r0, [sp, #12]
 4002686:	f7ff fc09 	bl	4001e9c <rock_read_delta>
 400268a:	a80f      	add	r0, sp, #60	; 0x3c
 400268c:	49bc      	ldr	r1, [pc, #752]	; (4002980 <apply_patch_from_rom+0x314>)
 400268e:	2208      	movs	r2, #8
 4002690:	f002 ff76 	bl	4005580 <memcmp>
 4002694:	900a      	str	r0, [sp, #40]	; 0x28
 4002696:	2800      	cmp	r0, #0
 4002698:	f040 81f0 	bne.w	4002a7c <apply_patch_from_rom+0x410>
 400269c:	9d11      	ldr	r5, [sp, #68]	; 0x44
 400269e:	9504      	str	r5, [sp, #16]
 40026a0:	986f      	ldr	r0, [sp, #444]	; 0x1bc
 40026a2:	9d12      	ldr	r5, [sp, #72]	; 0x48
 40026a4:	9b13      	ldr	r3, [sp, #76]	; 0x4c
 40026a6:	6003      	str	r3, [r0, #0]
 40026a8:	49b6      	ldr	r1, [pc, #728]	; (4002984 <apply_patch_from_rom+0x318>)
 40026aa:	9300      	str	r3, [sp, #0]
 40026ac:	9a04      	ldr	r2, [sp, #16]
 40026ae:	9803      	ldr	r0, [sp, #12]
 40026b0:	462b      	mov	r3, r5
 40026b2:	f7ff fb53 	bl	4001d5c <rock_trace>
 40026b6:	9904      	ldr	r1, [sp, #16]
 40026b8:	2900      	cmp	r1, #0
 40026ba:	f2c0 81cb 	blt.w	4002a54 <apply_patch_from_rom+0x3e8>
 40026be:	2d00      	cmp	r5, #0
 40026c0:	f2c0 81c8 	blt.w	4002a54 <apply_patch_from_rom+0x3e8>
 40026c4:	9a6f      	ldr	r2, [sp, #444]	; 0x1bc
 40026c6:	6813      	ldr	r3, [r2, #0]
 40026c8:	2b00      	cmp	r3, #0
 40026ca:	f000 81c3 	beq.w	4002a54 <apply_patch_from_rom+0x3e8>
 40026ce:	f8df 82c0 	ldr.w	r8, [pc, #704]	; 4002990 <apply_patch_from_rom+0x324>
 40026d2:	9a0a      	ldr	r2, [sp, #40]	; 0x28
 40026d4:	f8d8 1000 	ldr.w	r1, [r8]
 40026d8:	4eab      	ldr	r6, [pc, #684]	; (4002988 <apply_patch_from_rom+0x31c>)
 40026da:	a814      	add	r0, sp, #80	; 0x50
 40026dc:	f002 fe14 	bl	4005308 <block_stream_init>
 40026e0:	9f04      	ldr	r7, [sp, #16]
 40026e2:	9803      	ldr	r0, [sp, #12]
 40026e4:	f8d8 1000 	ldr.w	r1, [r8]
 40026e8:	9014      	str	r0, [sp, #80]	; 0x50
 40026ea:	4427      	add	r7, r4
 40026ec:	9a0a      	ldr	r2, [sp, #40]	; 0x28
 40026ee:	961d      	str	r6, [sp, #116]	; 0x74
 40026f0:	3414      	adds	r4, #20
 40026f2:	a830      	add	r0, sp, #192	; 0xc0
 40026f4:	9416      	str	r4, [sp, #88]	; 0x58
 40026f6:	f002 fe07 	bl	4005308 <block_stream_init>
 40026fa:	f107 0314 	add.w	r3, r7, #20
 40026fe:	9a03      	ldr	r2, [sp, #12]
 4002700:	9332      	str	r3, [sp, #200]	; 0xc8
 4002702:	a930      	add	r1, sp, #192	; 0xc0
 4002704:	a83e      	add	r0, sp, #248	; 0xf8
 4002706:	9230      	str	r2, [sp, #192]	; 0xc0
 4002708:	3514      	adds	r5, #20
 400270a:	9639      	str	r6, [sp, #228]	; 0xe4
 400270c:	f002 fe3c 	bl	4005388 <lzma_stream_init>
 4002710:	f8d8 1000 	ldr.w	r1, [r8]
 4002714:	9a0a      	ldr	r2, [sp, #40]	; 0x28
 4002716:	a822      	add	r0, sp, #136	; 0x88
 4002718:	f002 fdf6 	bl	4005308 <block_stream_init>
 400271c:	442f      	add	r7, r5
 400271e:	9d6f      	ldr	r5, [sp, #444]	; 0x1bc
 4002720:	962b      	str	r6, [sp, #172]	; 0xac
 4002722:	6828      	ldr	r0, [r5, #0]
 4002724:	9d03      	ldr	r5, [sp, #12]
 4002726:	9724      	str	r7, [sp, #144]	; 0x90
 4002728:	9522      	str	r5, [sp, #136]	; 0x88
 400272a:	f002 fbf9 	bl	4004f20 <vex_malloc>
 400272e:	f8ca 0000 	str.w	r0, [sl]
 4002732:	2800      	cmp	r0, #0
 4002734:	f000 81ac 	beq.w	4002a90 <apply_patch_from_rom+0x424>
 4002738:	9d6f      	ldr	r5, [sp, #444]	; 0x1bc
 400273a:	682b      	ldr	r3, [r5, #0]
 400273c:	2b00      	cmp	r3, #0
 400273e:	f000 815b 	beq.w	40029f8 <apply_patch_from_rom+0x38c>
 4002742:	f8dd b028 	ldr.w	fp, [sp, #40]	; 0x28
 4002746:	f8cd b008 	str.w	fp, [sp, #8]
 400274a:	9d04      	ldr	r5, [sp, #16]
 400274c:	2d00      	cmp	r5, #0
 400274e:	dd0c      	ble.n	400276a <apply_patch_from_rom+0xfe>
 4002750:	a814      	add	r0, sp, #80	; 0x50
 4002752:	a90c      	add	r1, sp, #48	; 0x30
 4002754:	220c      	movs	r2, #12
 4002756:	f002 fd8f 	bl	4005278 <block_stream_readnb>
 400275a:	2800      	cmp	r0, #0
 400275c:	f2c0 8185 	blt.w	4002a6a <apply_patch_from_rom+0x3fe>
 4002760:	9d6f      	ldr	r5, [sp, #444]	; 0x1bc
 4002762:	682b      	ldr	r3, [r5, #0]
 4002764:	9d04      	ldr	r5, [sp, #16]
 4002766:	3d0c      	subs	r5, #12
 4002768:	9504      	str	r5, [sp, #16]
 400276a:	9a0c      	ldr	r2, [sp, #48]	; 0x30
 400276c:	eb0b 0102 	add.w	r1, fp, r2
 4002770:	4299      	cmp	r1, r3
 4002772:	f200 8137 	bhi.w	40029e4 <apply_patch_from_rom+0x378>
 4002776:	f8da 4000 	ldr.w	r4, [sl]
 400277a:	2a00      	cmp	r2, #0
 400277c:	445c      	add	r4, fp
 400277e:	dd0a      	ble.n	4002796 <apply_patch_from_rom+0x12a>
 4002780:	4621      	mov	r1, r4
 4002782:	a83e      	add	r0, sp, #248	; 0xf8
 4002784:	f002 fe82 	bl	400548c <lzma_stream_readnb>
 4002788:	2800      	cmp	r0, #0
 400278a:	f2c0 814f 	blt.w	4002a2c <apply_patch_from_rom+0x3c0>
 400278e:	f8da 4000 	ldr.w	r4, [sl]
 4002792:	9a0c      	ldr	r2, [sp, #48]	; 0x30
 4002794:	445c      	add	r4, fp
 4002796:	9d08      	ldr	r5, [sp, #32]
 4002798:	9802      	ldr	r0, [sp, #8]
 400279a:	4f7c      	ldr	r7, [pc, #496]	; (400298c <apply_patch_from_rom+0x320>)
 400279c:	1a2e      	subs	r6, r5, r0
 400279e:	42b2      	cmp	r2, r6
 40027a0:	bf38      	it	cc
 40027a2:	4616      	movcc	r6, r2
 40027a4:	4037      	ands	r7, r6
 40027a6:	2f00      	cmp	r7, #0
 40027a8:	f2c0 810b 	blt.w	40029c2 <apply_patch_from_rom+0x356>
 40027ac:	9d03      	ldr	r5, [sp, #12]
 40027ae:	f8dd 8008 	ldr.w	r8, [sp, #8]
 40027b2:	69eb      	ldr	r3, [r5, #28]
 40027b4:	9d07      	ldr	r5, [sp, #28]
 40027b6:	44a8      	add	r8, r5
 40027b8:	2b00      	cmp	r3, #0
 40027ba:	f000 80f3 	beq.w	40029a4 <apply_patch_from_rom+0x338>
 40027be:	2000      	movs	r0, #0
 40027c0:	4645      	mov	r5, r8
 40027c2:	9006      	str	r0, [sp, #24]
 40027c4:	1bf1      	subs	r1, r6, r7
 40027c6:	2900      	cmp	r1, #0
 40027c8:	f340 80f5 	ble.w	40029b6 <apply_patch_from_rom+0x34a>
 40027cc:	2000      	movs	r0, #0
 40027ce:	5c2a      	ldrb	r2, [r5, r0]
 40027d0:	5c23      	ldrb	r3, [r4, r0]
 40027d2:	4413      	add	r3, r2
 40027d4:	5423      	strb	r3, [r4, r0]
 40027d6:	182a      	adds	r2, r5, r0
 40027d8:	1823      	adds	r3, r4, r0
 40027da:	f892 c001 	ldrb.w	ip, [r2, #1]
 40027de:	785f      	ldrb	r7, [r3, #1]
 40027e0:	f893 e002 	ldrb.w	lr, [r3, #2]
 40027e4:	4467      	add	r7, ip
 40027e6:	705f      	strb	r7, [r3, #1]
 40027e8:	f892 c002 	ldrb.w	ip, [r2, #2]
 40027ec:	78df      	ldrb	r7, [r3, #3]
 40027ee:	44e6      	add	lr, ip
 40027f0:	f883 e002 	strb.w	lr, [r3, #2]
 40027f4:	f892 c003 	ldrb.w	ip, [r2, #3]
 40027f8:	f893 e004 	ldrb.w	lr, [r3, #4]
 40027fc:	4467      	add	r7, ip
 40027fe:	70df      	strb	r7, [r3, #3]
 4002800:	f892 c004 	ldrb.w	ip, [r2, #4]
 4002804:	795f      	ldrb	r7, [r3, #5]
 4002806:	44e6      	add	lr, ip
 4002808:	f883 e004 	strb.w	lr, [r3, #4]
 400280c:	f892 c005 	ldrb.w	ip, [r2, #5]
 4002810:	f893 e006 	ldrb.w	lr, [r3, #6]
 4002814:	4467      	add	r7, ip
 4002816:	715f      	strb	r7, [r3, #5]
 4002818:	f892 c006 	ldrb.w	ip, [r2, #6]
 400281c:	79df      	ldrb	r7, [r3, #7]
 400281e:	44e6      	add	lr, ip
 4002820:	f883 e006 	strb.w	lr, [r3, #6]
 4002824:	f892 c007 	ldrb.w	ip, [r2, #7]
 4002828:	f893 e008 	ldrb.w	lr, [r3, #8]
 400282c:	4467      	add	r7, ip
 400282e:	71df      	strb	r7, [r3, #7]
 4002830:	f892 c008 	ldrb.w	ip, [r2, #8]
 4002834:	7a5f      	ldrb	r7, [r3, #9]
 4002836:	44e6      	add	lr, ip
 4002838:	f883 e008 	strb.w	lr, [r3, #8]
 400283c:	f892 c009 	ldrb.w	ip, [r2, #9]
 4002840:	f893 e00a 	ldrb.w	lr, [r3, #10]
 4002844:	4467      	add	r7, ip
 4002846:	725f      	strb	r7, [r3, #9]
 4002848:	f892 c00a 	ldrb.w	ip, [r2, #10]
 400284c:	7adf      	ldrb	r7, [r3, #11]
 400284e:	44e6      	add	lr, ip
 4002850:	f883 e00a 	strb.w	lr, [r3, #10]
 4002854:	f892 e00b 	ldrb.w	lr, [r2, #11]
 4002858:	4477      	add	r7, lr
 400285a:	72df      	strb	r7, [r3, #11]
 400285c:	f892 c00c 	ldrb.w	ip, [r2, #12]
 4002860:	f893 e00c 	ldrb.w	lr, [r3, #12]
 4002864:	7b5f      	ldrb	r7, [r3, #13]
 4002866:	44e6      	add	lr, ip
 4002868:	f883 e00c 	strb.w	lr, [r3, #12]
 400286c:	f892 c00d 	ldrb.w	ip, [r2, #13]
 4002870:	f893 e00e 	ldrb.w	lr, [r3, #14]
 4002874:	4467      	add	r7, ip
 4002876:	735f      	strb	r7, [r3, #13]
 4002878:	f892 c00e 	ldrb.w	ip, [r2, #14]
 400287c:	7bdf      	ldrb	r7, [r3, #15]
 400287e:	44e6      	add	lr, ip
 4002880:	f883 e00e 	strb.w	lr, [r3, #14]
 4002884:	7bd2      	ldrb	r2, [r2, #15]
 4002886:	3010      	adds	r0, #16
 4002888:	443a      	add	r2, r7
 400288a:	4288      	cmp	r0, r1
 400288c:	73da      	strb	r2, [r3, #15]
 400288e:	db9e      	blt.n	40027ce <apply_patch_from_rom+0x162>
 4002890:	3901      	subs	r1, #1
 4002892:	f021 010f 	bic.w	r1, r1, #15
 4002896:	3110      	adds	r1, #16
 4002898:	428e      	cmp	r6, r1
 400289a:	dd4e      	ble.n	400293a <apply_patch_from_rom+0x2ce>
 400289c:	1863      	adds	r3, r4, r1
 400289e:	1868      	adds	r0, r5, r1
 40028a0:	1d1a      	adds	r2, r3, #4
 40028a2:	1d07      	adds	r7, r0, #4
 40028a4:	4290      	cmp	r0, r2
 40028a6:	bf38      	it	cc
 40028a8:	42bb      	cmpcc	r3, r7
 40028aa:	bf34      	ite	cc
 40028ac:	2200      	movcc	r2, #0
 40028ae:	2201      	movcs	r2, #1
 40028b0:	ebc1 0c06 	rsb	ip, r1, r6
 40028b4:	f1bc 0f06 	cmp.w	ip, #6
 40028b8:	bf94      	ite	ls
 40028ba:	2200      	movls	r2, #0
 40028bc:	f002 0201 	andhi.w	r2, r2, #1
 40028c0:	2a00      	cmp	r2, #0
 40028c2:	d067      	beq.n	4002994 <apply_patch_from_rom+0x328>
 40028c4:	ea40 0203 	orr.w	r2, r0, r3
 40028c8:	0792      	lsls	r2, r2, #30
 40028ca:	d163      	bne.n	4002994 <apply_patch_from_rom+0x328>
 40028cc:	ea4f 0e9c 	mov.w	lr, ip, lsr #2
 40028d0:	ea4f 028e 	mov.w	r2, lr, lsl #2
 40028d4:	9205      	str	r2, [sp, #20]
 40028d6:	f1be 0f00 	cmp.w	lr, #0
 40028da:	d01c      	beq.n	4002916 <apply_patch_from_rom+0x2aa>
 40028dc:	2200      	movs	r2, #0
 40028de:	4617      	mov	r7, r2
 40028e0:	910b      	str	r1, [sp, #44]	; 0x2c
 40028e2:	4698      	mov	r8, r3
 40028e4:	5883      	ldr	r3, [r0, r2]
 40028e6:	f858 1002 	ldr.w	r1, [r8, r2]
 40028ea:	f003 397f 	and.w	r9, r3, #2139062143	; 0x7f7f7f7f
 40028ee:	404b      	eors	r3, r1
 40028f0:	f001 317f 	and.w	r1, r1, #2139062143	; 0x7f7f7f7f
 40028f4:	4449      	add	r1, r9
 40028f6:	f003 3380 	and.w	r3, r3, #2155905152	; 0x80808080
 40028fa:	3701      	adds	r7, #1
 40028fc:	404b      	eors	r3, r1
 40028fe:	45be      	cmp	lr, r7
 4002900:	f848 3002 	str.w	r3, [r8, r2]
 4002904:	f102 0204 	add.w	r2, r2, #4
 4002908:	d8ec      	bhi.n	40028e4 <apply_patch_from_rom+0x278>
 400290a:	9b05      	ldr	r3, [sp, #20]
 400290c:	990b      	ldr	r1, [sp, #44]	; 0x2c
 400290e:	4563      	cmp	r3, ip
 4002910:	4419      	add	r1, r3
 4002912:	d012      	beq.n	400293a <apply_patch_from_rom+0x2ce>
 4002914:	1863      	adds	r3, r4, r1
 4002916:	781a      	ldrb	r2, [r3, #0]
 4002918:	5c68      	ldrb	r0, [r5, r1]
 400291a:	4410      	add	r0, r2
 400291c:	1c4a      	adds	r2, r1, #1
 400291e:	4296      	cmp	r6, r2
 4002920:	7018      	strb	r0, [r3, #0]
 4002922:	dd0a      	ble.n	400293a <apply_patch_from_rom+0x2ce>
 4002924:	5ca8      	ldrb	r0, [r5, r2]
 4002926:	5ca3      	ldrb	r3, [r4, r2]
 4002928:	3102      	adds	r1, #2
 400292a:	4403      	add	r3, r0
 400292c:	428e      	cmp	r6, r1
 400292e:	54a3      	strb	r3, [r4, r2]
 4002930:	dd03      	ble.n	400293a <apply_patch_from_rom+0x2ce>
 4002932:	5c6b      	ldrb	r3, [r5, r1]
 4002934:	5c62      	ldrb	r2, [r4, r1]
 4002936:	4413      	add	r3, r2
 4002938:	5463      	strb	r3, [r4, r1]
 400293a:	9d03      	ldr	r5, [sp, #12]
 400293c:	69eb      	ldr	r3, [r5, #28]
 400293e:	2b00      	cmp	r3, #0
 4002940:	d03b      	beq.n	40029ba <apply_patch_from_rom+0x34e>
 4002942:	9d6f      	ldr	r5, [sp, #444]	; 0x1bc
 4002944:	9c0c      	ldr	r4, [sp, #48]	; 0x30
 4002946:	9a0d      	ldr	r2, [sp, #52]	; 0x34
 4002948:	682b      	ldr	r3, [r5, #0]
 400294a:	eb0b 0504 	add.w	r5, fp, r4
 400294e:	18a9      	adds	r1, r5, r2
 4002950:	4299      	cmp	r1, r3
 4002952:	d875      	bhi.n	4002a40 <apply_patch_from_rom+0x3d4>
 4002954:	f8da 1000 	ldr.w	r1, [sl]
 4002958:	a822      	add	r0, sp, #136	; 0x88
 400295a:	4429      	add	r1, r5
 400295c:	f002 fc8c 	bl	4005278 <block_stream_readnb>
 4002960:	2800      	cmp	r0, #0
 4002962:	db59      	blt.n	4002a18 <apply_patch_from_rom+0x3ac>
 4002964:	990e      	ldr	r1, [sp, #56]	; 0x38
 4002966:	986f      	ldr	r0, [sp, #444]	; 0x1bc
 4002968:	9a0d      	ldr	r2, [sp, #52]	; 0x34
 400296a:	6803      	ldr	r3, [r0, #0]
 400296c:	440c      	add	r4, r1
 400296e:	9902      	ldr	r1, [sp, #8]
 4002970:	4415      	add	r5, r2
 4002972:	4421      	add	r1, r4
 4002974:	42ab      	cmp	r3, r5
 4002976:	9102      	str	r1, [sp, #8]
 4002978:	d93e      	bls.n	40029f8 <apply_patch_from_rom+0x38c>
 400297a:	46ab      	mov	fp, r5
 400297c:	e6e5      	b.n	400274a <apply_patch_from_rom+0xde>
 400297e:	bf00      	nop
 4002980:	04006770 	streq	r6, [r0], #-1904	; 0x770
 4002984:	040067b4 	streq	r6, [r0], #-1972	; 0x7b4
 4002988:	04001e9d 	streq	r1, [r0], #-3741	; 0xe9d
 400298c:	8000000f 	andhi	r0, r0, pc
 4002990:	04009c14 	streq	r9, [r0], #-3092	; 0xc14
 4002994:	5c62      	ldrb	r2, [r4, r1]
 4002996:	5c6b      	ldrb	r3, [r5, r1]
 4002998:	4413      	add	r3, r2
 400299a:	5463      	strb	r3, [r4, r1]
 400299c:	3101      	adds	r1, #1
 400299e:	428e      	cmp	r6, r1
 40029a0:	d1f8      	bne.n	4002994 <apply_patch_from_rom+0x328>
 40029a2:	e7ca      	b.n	400293a <apply_patch_from_rom+0x2ce>
 40029a4:	9d09      	ldr	r5, [sp, #36]	; 0x24
 40029a6:	b18d      	cbz	r5, 40029cc <apply_patch_from_rom+0x360>
 40029a8:	9802      	ldr	r0, [sp, #8]
 40029aa:	9306      	str	r3, [sp, #24]
 40029ac:	1bf1      	subs	r1, r6, r7
 40029ae:	2900      	cmp	r1, #0
 40029b0:	4405      	add	r5, r0
 40029b2:	f73f af0b 	bgt.w	40027cc <apply_patch_from_rom+0x160>
 40029b6:	2100      	movs	r1, #0
 40029b8:	e76e      	b.n	4002898 <apply_patch_from_rom+0x22c>
 40029ba:	9806      	ldr	r0, [sp, #24]
 40029bc:	f002 fb7c 	bl	40050b8 <vex_free>
 40029c0:	e7bf      	b.n	4002942 <apply_patch_from_rom+0x2d6>
 40029c2:	3f01      	subs	r7, #1
 40029c4:	f067 070f 	orn	r7, r7, #15
 40029c8:	3701      	adds	r7, #1
 40029ca:	e6ef      	b.n	40027ac <apply_patch_from_rom+0x140>
 40029cc:	4630      	mov	r0, r6
 40029ce:	f002 faa7 	bl	4004f20 <vex_malloc>
 40029d2:	4605      	mov	r5, r0
 40029d4:	4629      	mov	r1, r5
 40029d6:	9803      	ldr	r0, [sp, #12]
 40029d8:	4642      	mov	r2, r8
 40029da:	4633      	mov	r3, r6
 40029dc:	f7ff fa46 	bl	4001e6c <rock_read_block>
 40029e0:	9506      	str	r5, [sp, #24]
 40029e2:	e6ef      	b.n	40027c4 <apply_patch_from_rom+0x158>
 40029e4:	9803      	ldr	r0, [sp, #12]
 40029e6:	4930      	ldr	r1, [pc, #192]	; (4002aa8 <apply_patch_from_rom+0x43c>)
 40029e8:	2501      	movs	r5, #1
 40029ea:	f7ff f9b7 	bl	4001d5c <rock_trace>
 40029ee:	950a      	str	r5, [sp, #40]	; 0x28
 40029f0:	4628      	mov	r0, r5
 40029f2:	b063      	add	sp, #396	; 0x18c
 40029f4:	e8bd 8ff0 	ldmia.w	sp!, {r4, r5, r6, r7, r8, r9, sl, fp, pc}
 40029f8:	a83e      	add	r0, sp, #248	; 0xf8
 40029fa:	f002 fcb5 	bl	4005368 <lzma_stream_free>
 40029fe:	a814      	add	r0, sp, #80	; 0x50
 4002a00:	f002 fcaa 	bl	4005358 <block_stream_free>
 4002a04:	a830      	add	r0, sp, #192	; 0xc0
 4002a06:	f002 fca7 	bl	4005358 <block_stream_free>
 4002a0a:	a822      	add	r0, sp, #136	; 0x88
 4002a0c:	f002 fca4 	bl	4005358 <block_stream_free>
 4002a10:	980a      	ldr	r0, [sp, #40]	; 0x28
 4002a12:	b063      	add	sp, #396	; 0x18c
 4002a14:	e8bd 8ff0 	ldmia.w	sp!, {r4, r5, r6, r7, r8, r9, sl, fp, pc}
 4002a18:	9803      	ldr	r0, [sp, #12]
 4002a1a:	4924      	ldr	r1, [pc, #144]	; (4002aac <apply_patch_from_rom+0x440>)
 4002a1c:	f7ff f99e 	bl	4001d5c <rock_trace>
 4002a20:	2501      	movs	r5, #1
 4002a22:	4628      	mov	r0, r5
 4002a24:	950a      	str	r5, [sp, #40]	; 0x28
 4002a26:	b063      	add	sp, #396	; 0x18c
 4002a28:	e8bd 8ff0 	ldmia.w	sp!, {r4, r5, r6, r7, r8, r9, sl, fp, pc}
 4002a2c:	9803      	ldr	r0, [sp, #12]
 4002a2e:	4920      	ldr	r1, [pc, #128]	; (4002ab0 <apply_patch_from_rom+0x444>)
 4002a30:	f7ff f994 	bl	4001d5c <rock_trace>
 4002a34:	2501      	movs	r5, #1
 4002a36:	4628      	mov	r0, r5
 4002a38:	950a      	str	r5, [sp, #40]	; 0x28
 4002a3a:	b063      	add	sp, #396	; 0x18c
 4002a3c:	e8bd 8ff0 	ldmia.w	sp!, {r4, r5, r6, r7, r8, r9, sl, fp, pc}
 4002a40:	9803      	ldr	r0, [sp, #12]
 4002a42:	491c      	ldr	r1, [pc, #112]	; (4002ab4 <apply_patch_from_rom+0x448>)
 4002a44:	f7ff f98a 	bl	4001d5c <rock_trace>
 4002a48:	2501      	movs	r5, #1
 4002a4a:	4628      	mov	r0, r5
 4002a4c:	950a      	str	r5, [sp, #40]	; 0x28
 4002a4e:	b063      	add	sp, #396	; 0x18c
 4002a50:	e8bd 8ff0 	ldmia.w	sp!, {r4, r5, r6, r7, r8, r9, sl, fp, pc}
 4002a54:	9803      	ldr	r0, [sp, #12]
 4002a56:	4918      	ldr	r1, [pc, #96]	; (4002ab8 <apply_patch_from_rom+0x44c>)
 4002a58:	f7ff f980 	bl	4001d5c <rock_trace>
 4002a5c:	f04f 35ff 	mov.w	r5, #4294967295
 4002a60:	4628      	mov	r0, r5
 4002a62:	950a      	str	r5, [sp, #40]	; 0x28
 4002a64:	b063      	add	sp, #396	; 0x18c
 4002a66:	e8bd 8ff0 	ldmia.w	sp!, {r4, r5, r6, r7, r8, r9, sl, fp, pc}
 4002a6a:	9803      	ldr	r0, [sp, #12]
 4002a6c:	4913      	ldr	r1, [pc, #76]	; (4002abc <apply_patch_from_rom+0x450>)
 4002a6e:	f06f 0503 	mvn.w	r5, #3
 4002a72:	f7ff f973 	bl	4001d5c <rock_trace>
 4002a76:	950a      	str	r5, [sp, #40]	; 0x28
 4002a78:	4628      	mov	r0, r5
 4002a7a:	e7ba      	b.n	40029f2 <apply_patch_from_rom+0x386>
 4002a7c:	9803      	ldr	r0, [sp, #12]
 4002a7e:	4910      	ldr	r1, [pc, #64]	; (4002ac0 <apply_patch_from_rom+0x454>)
 4002a80:	f04f 35ff 	mov.w	r5, #4294967295
 4002a84:	aa0f      	add	r2, sp, #60	; 0x3c
 4002a86:	f7ff f969 	bl	4001d5c <rock_trace>
 4002a8a:	950a      	str	r5, [sp, #40]	; 0x28
 4002a8c:	4628      	mov	r0, r5
 4002a8e:	e7b0      	b.n	40029f2 <apply_patch_from_rom+0x386>
 4002a90:	9d6f      	ldr	r5, [sp, #444]	; 0x1bc
 4002a92:	9803      	ldr	r0, [sp, #12]
 4002a94:	682a      	ldr	r2, [r5, #0]
 4002a96:	490b      	ldr	r1, [pc, #44]	; (4002ac4 <apply_patch_from_rom+0x458>)
 4002a98:	f06f 0513 	mvn.w	r5, #19
 4002a9c:	f7ff f95e 	bl	4001d5c <rock_trace>
 4002aa0:	950a      	str	r5, [sp, #40]	; 0x28
 4002aa2:	4628      	mov	r0, r5
 4002aa4:	e7a5      	b.n	40029f2 <apply_patch_from_rom+0x386>
 4002aa6:	bf00      	nop
 4002aa8:	04006864 	streq	r6, [r0], #-2148	; 0x864
 4002aac:	040068d0 	streq	r6, [r0], #-2256	; 0x8d0
 4002ab0:	04006888 	streq	r6, [r0], #-2184	; 0x888
 4002ab4:	040068ac 	streq	r6, [r0], #-2220	; 0x8ac
 4002ab8:	040067dc 	streq	r6, [r0], #-2012	; 0x7dc
 4002abc:	04006840 	streq	r6, [r0], #-2112	; 0x840
 4002ac0:	0400677c 	streq	r6, [r0], #-1916	; 0x77c
 4002ac4:	04006808 	streq	r6, [r0], #-2056	; 0x808

04002ac8 <rock_write_block_with_backup>:
 4002ac8:	e92d 41f0 	stmdb	sp!, {r4, r5, r6, r7, r8, lr}
 4002acc:	4c0e      	ldr	r4, [pc, #56]	; (4002b08 <rock_write_block_with_backup+0x40>)
 4002ace:	6827      	ldr	r7, [r4, #0]
 4002ad0:	4615      	mov	r5, r2
 4002ad2:	697a      	ldr	r2, [r7, #20]
 4002ad4:	429a      	cmp	r2, r3
 4002ad6:	b082      	sub	sp, #8
 4002ad8:	461c      	mov	r4, r3
 4002ada:	4606      	mov	r6, r0
 4002adc:	4688      	mov	r8, r1
 4002ade:	d309      	bcc.n	4002af4 <rock_write_block_with_backup+0x2c>
 4002ae0:	693a      	ldr	r2, [r7, #16]
 4002ae2:	f7ff f97f 	bl	4001de4 <rock_write_block>
 4002ae6:	4909      	ldr	r1, [pc, #36]	; (4002b0c <rock_write_block_with_backup+0x44>)
 4002ae8:	9000      	str	r0, [sp, #0]
 4002aea:	462a      	mov	r2, r5
 4002aec:	4630      	mov	r0, r6
 4002aee:	4623      	mov	r3, r4
 4002af0:	f7ff f934 	bl	4001d5c <rock_trace>
 4002af4:	4630      	mov	r0, r6
 4002af6:	4641      	mov	r1, r8
 4002af8:	462a      	mov	r2, r5
 4002afa:	4623      	mov	r3, r4
 4002afc:	b002      	add	sp, #8
 4002afe:	e8bd 41f0 	ldmia.w	sp!, {r4, r5, r6, r7, r8, lr}
 4002b02:	f7ff b96f 	b.w	4001de4 <rock_write_block>
 4002b06:	bf00      	nop
 4002b08:	000006a0 	andeq	r0, r0, r0, lsr #13
 4002b0c:	040068f4 	streq	r6, [r0], #-2292	; 0x8f4

04002b10 <hash_from_rom>:
 4002b10:	e92d 4ff0 	stmdb	sp!, {r4, r5, r6, r7, r8, r9, sl, fp, lr}
 4002b14:	b089      	sub	sp, #36	; 0x24
 4002b16:	460f      	mov	r7, r1
 4002b18:	4691      	mov	r9, r2
 4002b1a:	9305      	str	r3, [sp, #20]
 4002b1c:	9004      	str	r0, [sp, #16]
 4002b1e:	f7ff f9d7 	bl	4001ed0 <rock_get_blocksize>
 4002b22:	4952      	ldr	r1, [pc, #328]	; (4002c6c <hash_from_rom+0x15c>)
 4002b24:	9002      	str	r0, [sp, #8]
 4002b26:	680b      	ldr	r3, [r1, #0]
 4002b28:	69db      	ldr	r3, [r3, #28]
 4002b2a:	2201      	movs	r2, #1
 4002b2c:	9207      	str	r2, [sp, #28]
 4002b2e:	2b00      	cmp	r3, #0
 4002b30:	d067      	beq.n	4002c02 <hash_from_rom+0xf2>
 4002b32:	f8df b148 	ldr.w	fp, [pc, #328]	; 4002c7c <hash_from_rom+0x16c>
 4002b36:	f04f 0a00 	mov.w	sl, #0
 4002b3a:	2601      	movs	r6, #1
 4002b3c:	f8dd 8008 	ldr.w	r8, [sp, #8]
 4002b40:	f8db 4000 	ldr.w	r4, [fp]
 4002b44:	45c1      	cmp	r9, r8
 4002b46:	bf38      	it	cc
 4002b48:	46c8      	movcc	r8, r9
 4002b4a:	4643      	mov	r3, r8
 4002b4c:	2c00      	cmp	r4, #0
 4002b4e:	d02b      	beq.n	4002ba8 <hash_from_rom+0x98>
 4002b50:	4a47      	ldr	r2, [pc, #284]	; (4002c70 <hash_from_rom+0x160>)
 4002b52:	2500      	movs	r5, #0
 4002b54:	6811      	ldr	r1, [r2, #0]
 4002b56:	e003      	b.n	4002b60 <hash_from_rom+0x50>
 4002b58:	428d      	cmp	r5, r1
 4002b5a:	f104 0410 	add.w	r4, r4, #16
 4002b5e:	da23      	bge.n	4002ba8 <hash_from_rom+0x98>
 4002b60:	68e2      	ldr	r2, [r4, #12]
 4002b62:	3501      	adds	r5, #1
 4002b64:	2a00      	cmp	r2, #0
 4002b66:	d0f7      	beq.n	4002b58 <hash_from_rom+0x48>
 4002b68:	6862      	ldr	r2, [r4, #4]
 4002b6a:	4297      	cmp	r7, r2
 4002b6c:	d1f4      	bne.n	4002b58 <hash_from_rom+0x48>
 4002b6e:	68a2      	ldr	r2, [r4, #8]
 4002b70:	4590      	cmp	r8, r2
 4002b72:	d1f1      	bne.n	4002b58 <hash_from_rom+0x48>
 4002b74:	6821      	ldr	r1, [r4, #0]
 4002b76:	9107      	str	r1, [sp, #28]
 4002b78:	1c4a      	adds	r2, r1, #1
 4002b7a:	d018      	beq.n	4002bae <hash_from_rom+0x9e>
 4002b7c:	4630      	mov	r0, r6
 4002b7e:	4642      	mov	r2, r8
 4002b80:	f000 fec8 	bl	4003914 <iot_hash_combine>
 4002b84:	ebb9 0908 	subs.w	r9, r9, r8
 4002b88:	4447      	add	r7, r8
 4002b8a:	f10a 0a10 	add.w	sl, sl, #16
 4002b8e:	4606      	mov	r6, r0
 4002b90:	d1d4      	bne.n	4002b3c <hash_from_rom+0x2c>
 4002b92:	4936      	ldr	r1, [pc, #216]	; (4002c6c <hash_from_rom+0x15c>)
 4002b94:	680b      	ldr	r3, [r1, #0]
 4002b96:	69db      	ldr	r3, [r3, #28]
 4002b98:	2b00      	cmp	r3, #0
 4002b9a:	d057      	beq.n	4002c4c <hash_from_rom+0x13c>
 4002b9c:	9a05      	ldr	r2, [sp, #20]
 4002b9e:	2000      	movs	r0, #0
 4002ba0:	6016      	str	r6, [r2, #0]
 4002ba2:	b009      	add	sp, #36	; 0x24
 4002ba4:	e8bd 8ff0 	ldmia.w	sp!, {r4, r5, r6, r7, r8, r9, sl, fp, pc}
 4002ba8:	f04f 31ff 	mov.w	r1, #4294967295
 4002bac:	9107      	str	r1, [sp, #28]
 4002bae:	492f      	ldr	r1, [pc, #188]	; (4002c6c <hash_from_rom+0x15c>)
 4002bb0:	680a      	ldr	r2, [r1, #0]
 4002bb2:	69d2      	ldr	r2, [r2, #28]
 4002bb4:	b1ea      	cbz	r2, 4002bf2 <hash_from_rom+0xe2>
 4002bb6:	9703      	str	r7, [sp, #12]
 4002bb8:	2b00      	cmp	r3, #0
 4002bba:	d0ea      	beq.n	4002b92 <hash_from_rom+0x82>
 4002bbc:	db33      	blt.n	4002c26 <hash_from_rom+0x116>
 4002bbe:	4619      	mov	r1, r3
 4002bc0:	aa07      	add	r2, sp, #28
 4002bc2:	9803      	ldr	r0, [sp, #12]
 4002bc4:	9301      	str	r3, [sp, #4]
 4002bc6:	f000 fe99 	bl	40038fc <iot_hash>
 4002bca:	f8db 1000 	ldr.w	r1, [fp]
 4002bce:	9b01      	ldr	r3, [sp, #4]
 4002bd0:	eb01 020a 	add.w	r2, r1, sl
 4002bd4:	68d0      	ldr	r0, [r2, #12]
 4002bd6:	b110      	cbz	r0, 4002bde <hash_from_rom+0xce>
 4002bd8:	4698      	mov	r8, r3
 4002bda:	9907      	ldr	r1, [sp, #28]
 4002bdc:	e7ce      	b.n	4002b7c <hash_from_rom+0x6c>
 4002bde:	9807      	ldr	r0, [sp, #28]
 4002be0:	f841 000a 	str.w	r0, [r1, sl]
 4002be4:	2001      	movs	r0, #1
 4002be6:	9907      	ldr	r1, [sp, #28]
 4002be8:	6057      	str	r7, [r2, #4]
 4002bea:	6093      	str	r3, [r2, #8]
 4002bec:	4698      	mov	r8, r3
 4002bee:	60d0      	str	r0, [r2, #12]
 4002bf0:	e7c4      	b.n	4002b7c <hash_from_rom+0x6c>
 4002bf2:	4643      	mov	r3, r8
 4002bf4:	9804      	ldr	r0, [sp, #16]
 4002bf6:	9903      	ldr	r1, [sp, #12]
 4002bf8:	463a      	mov	r2, r7
 4002bfa:	f7ff f937 	bl	4001e6c <rock_read_block>
 4002bfe:	4603      	mov	r3, r0
 4002c00:	e7da      	b.n	4002bb8 <hash_from_rom+0xa8>
 4002c02:	f002 f98d 	bl	4004f20 <vex_malloc>
 4002c06:	9003      	str	r0, [sp, #12]
 4002c08:	2800      	cmp	r0, #0
 4002c0a:	d192      	bne.n	4002b32 <hash_from_rom+0x22>
 4002c0c:	9a02      	ldr	r2, [sp, #8]
 4002c0e:	9804      	ldr	r0, [sp, #16]
 4002c10:	4918      	ldr	r1, [pc, #96]	; (4002c74 <hash_from_rom+0x164>)
 4002c12:	f7ff f8a3 	bl	4001d5c <rock_trace>
 4002c16:	9804      	ldr	r0, [sp, #16]
 4002c18:	f06f 0113 	mvn.w	r1, #19
 4002c1c:	f7ff f89c 	bl	4001d58 <rock_fatal>
 4002c20:	f06f 0013 	mvn.w	r0, #19
 4002c24:	e7bd      	b.n	4002ba2 <hash_from_rom+0x92>
 4002c26:	461a      	mov	r2, r3
 4002c28:	9804      	ldr	r0, [sp, #16]
 4002c2a:	4913      	ldr	r1, [pc, #76]	; (4002c78 <hash_from_rom+0x168>)
 4002c2c:	f7ff f896 	bl	4001d5c <rock_trace>
 4002c30:	4a0e      	ldr	r2, [pc, #56]	; (4002c6c <hash_from_rom+0x15c>)
 4002c32:	6813      	ldr	r3, [r2, #0]
 4002c34:	69db      	ldr	r3, [r3, #28]
 4002c36:	b16b      	cbz	r3, 4002c54 <hash_from_rom+0x144>
 4002c38:	9804      	ldr	r0, [sp, #16]
 4002c3a:	f06f 010a 	mvn.w	r1, #10
 4002c3e:	f7ff f88b 	bl	4001d58 <rock_fatal>
 4002c42:	f06f 000a 	mvn.w	r0, #10
 4002c46:	b009      	add	sp, #36	; 0x24
 4002c48:	e8bd 8ff0 	ldmia.w	sp!, {r4, r5, r6, r7, r8, r9, sl, fp, pc}
 4002c4c:	9803      	ldr	r0, [sp, #12]
 4002c4e:	f002 fa33 	bl	40050b8 <vex_free>
 4002c52:	e7a3      	b.n	4002b9c <hash_from_rom+0x8c>
 4002c54:	9803      	ldr	r0, [sp, #12]
 4002c56:	f002 fa2f 	bl	40050b8 <vex_free>
 4002c5a:	9804      	ldr	r0, [sp, #16]
 4002c5c:	f06f 010a 	mvn.w	r1, #10
 4002c60:	f7ff f87a 	bl	4001d58 <rock_fatal>
 4002c64:	f06f 000a 	mvn.w	r0, #10
 4002c68:	e7ed      	b.n	4002c46 <hash_from_rom+0x136>
 4002c6a:	bf00      	nop
 4002c6c:	000006a0 	andeq	r0, r0, r0, lsr #13
 4002c70:	0000069c 	muleq	r0, ip, r6
 4002c74:	04006920 	streq	r6, [r0], #-2336	; 0x920
 4002c78:	04006940 	streq	r6, [r0], #-2368	; 0x940
 4002c7c:	000006a4 	andeq	r0, r0, r4, lsr #13

04002c80 <iot_patch>:
 4002c80:	e92d 4ff0 	stmdb	sp!, {r4, r5, r6, r7, r8, r9, sl, fp, lr}
 4002c84:	4681      	mov	r9, r0
 4002c86:	b0ed      	sub	sp, #436	; 0x1b4
 4002c88:	2800      	cmp	r0, #0
 4002c8a:	f000 8442 	beq.w	4003512 <iot_patch+0x892>
 4002c8e:	6805      	ldr	r5, [r0, #0]
 4002c90:	4a2a      	ldr	r2, [pc, #168]	; (4002d3c <iot_patch+0xbc>)
 4002c92:	4628      	mov	r0, r5
 4002c94:	2100      	movs	r1, #0
 4002c96:	f8c2 9000 	str.w	r9, [r2]
 4002c9a:	f7ff f883 	bl	4001da4 <rock_progress>
 4002c9e:	4b28      	ldr	r3, [pc, #160]	; (4002d40 <iot_patch+0xc0>)
 4002ca0:	4a28      	ldr	r2, [pc, #160]	; (4002d44 <iot_patch+0xc4>)
 4002ca2:	4929      	ldr	r1, [pc, #164]	; (4002d48 <iot_patch+0xc8>)
 4002ca4:	4628      	mov	r0, r5
 4002ca6:	f7ff f859 	bl	4001d5c <rock_trace>
 4002caa:	4628      	mov	r0, r5
 4002cac:	4927      	ldr	r1, [pc, #156]	; (4002d4c <iot_patch+0xcc>)
 4002cae:	f7ff f855 	bl	4001d5c <rock_trace>
 4002cb2:	f8d9 100c 	ldr.w	r1, [r9, #12]
 4002cb6:	f8d9 0008 	ldr.w	r0, [r9, #8]
 4002cba:	f002 fa55 	bl	4005168 <vex_vmm_init>
 4002cbe:	4628      	mov	r0, r5
 4002cc0:	f7ff f906 	bl	4001ed0 <rock_get_blocksize>
 4002cc4:	f8d9 3014 	ldr.w	r3, [r9, #20]
 4002cc8:	9005      	str	r0, [sp, #20]
 4002cca:	4298      	cmp	r0, r3
 4002ccc:	f200 8192 	bhi.w	4002ff4 <iot_patch+0x374>
 4002cd0:	4606      	mov	r6, r0
 4002cd2:	f8c9 0014 	str.w	r0, [r9, #20]
 4002cd6:	491e      	ldr	r1, [pc, #120]	; (4002d50 <iot_patch+0xd0>)
 4002cd8:	4628      	mov	r0, r5
 4002cda:	4632      	mov	r2, r6
 4002cdc:	f7ff f83e 	bl	4001d5c <rock_trace>
 4002ce0:	a936      	add	r1, sp, #216	; 0xd8
 4002ce2:	4628      	mov	r0, r5
 4002ce4:	2200      	movs	r2, #0
 4002ce6:	2348      	movs	r3, #72	; 0x48
 4002ce8:	f7ff f8d8 	bl	4001e9c <rock_read_delta>
 4002cec:	2848      	cmp	r0, #72	; 0x48
 4002cee:	9007      	str	r0, [sp, #28]
 4002cf0:	f040 8397 	bne.w	4003422 <iot_patch+0x7a2>
 4002cf4:	a836      	add	r0, sp, #216	; 0xd8
 4002cf6:	4917      	ldr	r1, [pc, #92]	; (4002d54 <iot_patch+0xd4>)
 4002cf8:	2208      	movs	r2, #8
 4002cfa:	f002 fc41 	bl	4005580 <memcmp>
 4002cfe:	9006      	str	r0, [sp, #24]
 4002d00:	2800      	cmp	r0, #0
 4002d02:	f040 83c0 	bne.w	4003486 <iot_patch+0x806>
 4002d06:	9a45      	ldr	r2, [sp, #276]	; 0x114
 4002d08:	f8c9 2018 	str.w	r2, [r9, #24]
 4002d0c:	4628      	mov	r0, r5
 4002d0e:	4912      	ldr	r1, [pc, #72]	; (4002d58 <iot_patch+0xd8>)
 4002d10:	f7ff f824 	bl	4001d5c <rock_trace>
 4002d14:	4911      	ldr	r1, [pc, #68]	; (4002d5c <iot_patch+0xdc>)
 4002d16:	4628      	mov	r0, r5
 4002d18:	f7ff f820 	bl	4001d5c <rock_trace>
 4002d1c:	4628      	mov	r0, r5
 4002d1e:	9c46      	ldr	r4, [sp, #280]	; 0x118
 4002d20:	f7ff f8d6 	bl	4001ed0 <rock_get_blocksize>
 4002d24:	2601      	movs	r6, #1
 4002d26:	4682      	mov	sl, r0
 4002d28:	9648      	str	r6, [sp, #288]	; 0x120
 4002d2a:	f002 f8f9 	bl	4004f20 <vex_malloc>
 4002d2e:	4607      	mov	r7, r0
 4002d30:	2800      	cmp	r0, #0
 4002d32:	f000 8465 	beq.w	4003600 <iot_patch+0x980>
 4002d36:	46b0      	mov	r8, r6
 4002d38:	9e07      	ldr	r6, [sp, #28]
 4002d3a:	e01e      	b.n	4002d7a <iot_patch+0xfa>
 4002d3c:	000006a0 	andeq	r0, r0, r0, lsr #13
 4002d40:	04006970 	streq	r6, [r0], #-2416	; 0x970
 4002d44:	04006968 	streq	r6, [r0], #-2408	; 0x968
 4002d48:	0400694c 	streq	r6, [r0], #-2380	; 0x94c
 4002d4c:	0400697c 	streq	r6, [r0], #-2428	; 0x97c
 4002d50:	040069a8 	streq	r6, [r0], #-2472	; 0x9a8
 4002d54:	040069dc 	streq	r6, [r0], #-2524	; 0x9dc
 4002d58:	04006a00 	streq	r6, [r0], #-2560	; 0xa00
 4002d5c:	04006a14 	streq	r6, [r0], #-2580	; 0xa14
 4002d60:	f2c0 814d 	blt.w	4002ffe <iot_patch+0x37e>
 4002d64:	f000 fdca 	bl	40038fc <iot_hash>
 4002d68:	4640      	mov	r0, r8
 4002d6a:	9948      	ldr	r1, [sp, #288]	; 0x120
 4002d6c:	465a      	mov	r2, fp
 4002d6e:	f000 fdd1 	bl	4003914 <iot_hash_combine>
 4002d72:	ebb4 040b 	subs.w	r4, r4, fp
 4002d76:	4680      	mov	r8, r0
 4002d78:	d00f      	beq.n	4002d9a <iot_patch+0x11a>
 4002d7a:	4632      	mov	r2, r6
 4002d7c:	4639      	mov	r1, r7
 4002d7e:	4554      	cmp	r4, sl
 4002d80:	bf34      	ite	cc
 4002d82:	4623      	movcc	r3, r4
 4002d84:	4653      	movcs	r3, sl
 4002d86:	4628      	mov	r0, r5
 4002d88:	f7ff f888 	bl	4001e9c <rock_read_delta>
 4002d8c:	f1b0 0b00 	subs.w	fp, r0, #0
 4002d90:	aa48      	add	r2, sp, #288	; 0x120
 4002d92:	4659      	mov	r1, fp
 4002d94:	4638      	mov	r0, r7
 4002d96:	445e      	add	r6, fp
 4002d98:	d1e2      	bne.n	4002d60 <iot_patch+0xe0>
 4002d9a:	4638      	mov	r0, r7
 4002d9c:	f002 f98c 	bl	40050b8 <vex_free>
 4002da0:	9b47      	ldr	r3, [sp, #284]	; 0x11c
 4002da2:	f8cd 8030 	str.w	r8, [sp, #48]	; 0x30
 4002da6:	4543      	cmp	r3, r8
 4002da8:	f040 8397 	bne.w	40034da <iot_patch+0x85a>
 4002dac:	489e      	ldr	r0, [pc, #632]	; (4003028 <iot_patch+0x3a8>)
 4002dae:	6803      	ldr	r3, [r0, #0]
 4002db0:	2b00      	cmp	r3, #0
 4002db2:	f000 8222 	beq.w	40031fa <iot_patch+0x57a>
 4002db6:	4628      	mov	r0, r5
 4002db8:	499c      	ldr	r1, [pc, #624]	; (400302c <iot_patch+0x3ac>)
 4002dba:	f7fe ffcf 	bl	4001d5c <rock_trace>
 4002dbe:	4628      	mov	r0, r5
 4002dc0:	f8d9 1004 	ldr.w	r1, [r9, #4]
 4002dc4:	9a39      	ldr	r2, [sp, #228]	; 0xe4
 4002dc6:	ab0c      	add	r3, sp, #48	; 0x30
 4002dc8:	f7ff fea2 	bl	4002b10 <hash_from_rom>
 4002dcc:	2800      	cmp	r0, #0
 4002dce:	f040 81b0 	bne.w	4003132 <iot_patch+0x4b2>
 4002dd2:	9a3b      	ldr	r2, [sp, #236]	; 0xec
 4002dd4:	9b0c      	ldr	r3, [sp, #48]	; 0x30
 4002dd6:	429a      	cmp	r2, r3
 4002dd8:	f000 8379 	beq.w	40034ce <iot_patch+0x84e>
 4002ddc:	f8d9 3020 	ldr.w	r3, [r9, #32]
 4002de0:	2b00      	cmp	r3, #0
 4002de2:	f040 81aa 	bne.w	400313a <iot_patch+0x4ba>
 4002de6:	4628      	mov	r0, r5
 4002de8:	2114      	movs	r1, #20
 4002dea:	f7fe ffdb 	bl	4001da4 <rock_progress>
 4002dee:	f8dd 80f0 	ldr.w	r8, [sp, #240]	; 0xf0
 4002df2:	498f      	ldr	r1, [pc, #572]	; (4003030 <iot_patch+0x3b0>)
 4002df4:	4642      	mov	r2, r8
 4002df6:	4628      	mov	r0, r5
 4002df8:	f7fe ffb0 	bl	4001d5c <rock_trace>
 4002dfc:	488d      	ldr	r0, [pc, #564]	; (4003034 <iot_patch+0x3b4>)
 4002dfe:	9a05      	ldr	r2, [sp, #20]
 4002e00:	6801      	ldr	r1, [r0, #0]
 4002e02:	2450      	movs	r4, #80	; 0x50
 4002e04:	a81a      	add	r0, sp, #104	; 0x68
 4002e06:	fb94 f4f8 	sdiv	r4, r4, r8
 4002e0a:	f002 fa7d 	bl	4005308 <block_stream_init>
 4002e0e:	2800      	cmp	r0, #0
 4002e10:	f040 8384 	bne.w	400351c <iot_patch+0x89c>
 4002e14:	f8d9 3004 	ldr.w	r3, [r9, #4]
 4002e18:	4f87      	ldr	r7, [pc, #540]	; (4003038 <iot_patch+0x3b8>)
 4002e1a:	951a      	str	r5, [sp, #104]	; 0x68
 4002e1c:	f1b8 0f00 	cmp.w	r8, #0
 4002e20:	9724      	str	r7, [sp, #144]	; 0x90
 4002e22:	931c      	str	r3, [sp, #112]	; 0x70
 4002e24:	f340 816f 	ble.w	4003106 <iot_patch+0x486>
 4002e28:	ebc4 1104 	rsb	r1, r4, r4, lsl #4
 4002e2c:	4a83      	ldr	r2, [pc, #524]	; (400303c <iot_patch+0x3bc>)
 4002e2e:	4e84      	ldr	r6, [pc, #528]	; (4003040 <iot_patch+0x3c0>)
 4002e30:	f8cd 8020 	str.w	r8, [sp, #32]
 4002e34:	eb04 0384 	add.w	r3, r4, r4, lsl #2
 4002e38:	0049      	lsls	r1, r1, #1
 4002e3a:	011b      	lsls	r3, r3, #4
 4002e3c:	fb82 7001 	smull	r7, r0, r2, r1
 4002e40:	fb86 7604 	smull	r7, r6, r6, r4
 4002e44:	fb82 7203 	smull	r7, r2, r2, r3
 4002e48:	17c9      	asrs	r1, r1, #31
 4002e4a:	17db      	asrs	r3, r3, #31
 4002e4c:	17e4      	asrs	r4, r4, #31
 4002e4e:	ebc4 0466 	rsb	r4, r4, r6, asr #1
 4002e52:	ebc1 1160 	rsb	r1, r1, r0, asr #5
 4002e56:	ebc3 1362 	rsb	r3, r3, r2, asr #5
 4002e5a:	2614      	movs	r6, #20
 4002e5c:	f8dd 801c 	ldr.w	r8, [sp, #28]
 4002e60:	910a      	str	r1, [sp, #40]	; 0x28
 4002e62:	930b      	str	r3, [sp, #44]	; 0x2c
 4002e64:	9409      	str	r4, [sp, #36]	; 0x24
 4002e66:	f04f 0a01 	mov.w	sl, #1
 4002e6a:	9605      	str	r6, [sp, #20]
 4002e6c:	4642      	mov	r2, r8
 4002e6e:	232c      	movs	r3, #44	; 0x2c
 4002e70:	4628      	mov	r0, r5
 4002e72:	a90f      	add	r1, sp, #60	; 0x3c
 4002e74:	f7ff f812 	bl	4001e9c <rock_read_delta>
 4002e78:	9b0f      	ldr	r3, [sp, #60]	; 0x3c
 4002e7a:	2b16      	cmp	r3, #22
 4002e7c:	4480      	add	r8, r0
 4002e7e:	f10a 3bff 	add.w	fp, sl, #4294967295
 4002e82:	f000 81d8 	beq.w	4003236 <iot_patch+0x5b6>
 4002e86:	2b15      	cmp	r3, #21
 4002e88:	f000 81f1 	beq.w	400326e <iot_patch+0x5ee>
 4002e8c:	2b02      	cmp	r3, #2
 4002e8e:	f000 8259 	beq.w	4003344 <iot_patch+0x6c4>
 4002e92:	2b01      	cmp	r3, #1
 4002e94:	f000 8166 	beq.w	4003164 <iot_patch+0x4e4>
 4002e98:	9a13      	ldr	r2, [sp, #76]	; 0x4c
 4002e9a:	9b12      	ldr	r3, [sp, #72]	; 0x48
 4002e9c:	9200      	str	r2, [sp, #0]
 4002e9e:	4628      	mov	r0, r5
 4002ea0:	4968      	ldr	r1, [pc, #416]	; (4003044 <iot_patch+0x3c4>)
 4002ea2:	465a      	mov	r2, fp
 4002ea4:	f7fe ff5a 	bl	4001d5c <rock_trace>
 4002ea8:	f8d9 3004 	ldr.w	r3, [r9, #4]
 4002eac:	9912      	ldr	r1, [sp, #72]	; 0x48
 4002eae:	9a13      	ldr	r2, [sp, #76]	; 0x4c
 4002eb0:	4419      	add	r1, r3
 4002eb2:	4628      	mov	r0, r5
 4002eb4:	ab0c      	add	r3, sp, #48	; 0x30
 4002eb6:	f7ff fe2b 	bl	4002b10 <hash_from_rom>
 4002eba:	2800      	cmp	r0, #0
 4002ebc:	f040 8139 	bne.w	4003132 <iot_patch+0x4b2>
 4002ec0:	9a17      	ldr	r2, [sp, #92]	; 0x5c
 4002ec2:	9b0c      	ldr	r3, [sp, #48]	; 0x30
 4002ec4:	429a      	cmp	r2, r3
 4002ec6:	f000 8106 	beq.w	40030d6 <iot_patch+0x456>
 4002eca:	9a13      	ldr	r2, [sp, #76]	; 0x4c
 4002ecc:	f8d9 3014 	ldr.w	r3, [r9, #20]
 4002ed0:	429a      	cmp	r2, r3
 4002ed2:	4628      	mov	r0, r5
 4002ed4:	f240 80cc 	bls.w	4003070 <iot_patch+0x3f0>
 4002ed8:	495b      	ldr	r1, [pc, #364]	; (4003048 <iot_patch+0x3c8>)
 4002eda:	f7fe ff3f 	bl	4001d5c <rock_trace>
 4002ede:	4f5b      	ldr	r7, [pc, #364]	; (400304c <iot_patch+0x3cc>)
 4002ee0:	495b      	ldr	r1, [pc, #364]	; (4003050 <iot_patch+0x3d0>)
 4002ee2:	2301      	movs	r3, #1
 4002ee4:	4628      	mov	r0, r5
 4002ee6:	465a      	mov	r2, fp
 4002ee8:	603b      	str	r3, [r7, #0]
 4002eea:	f7fe ff37 	bl	4001d5c <rock_trace>
 4002eee:	9a11      	ldr	r2, [sp, #68]	; 0x44
 4002ef0:	9b10      	ldr	r3, [sp, #64]	; 0x40
 4002ef2:	9200      	str	r2, [sp, #0]
 4002ef4:	4628      	mov	r0, r5
 4002ef6:	4957      	ldr	r1, [pc, #348]	; (4003054 <iot_patch+0x3d4>)
 4002ef8:	465a      	mov	r2, fp
 4002efa:	f7fe ff2f 	bl	4001d5c <rock_trace>
 4002efe:	f8d9 3004 	ldr.w	r3, [r9, #4]
 4002f02:	9910      	ldr	r1, [sp, #64]	; 0x40
 4002f04:	9a11      	ldr	r2, [sp, #68]	; 0x44
 4002f06:	4419      	add	r1, r3
 4002f08:	4628      	mov	r0, r5
 4002f0a:	ab0c      	add	r3, sp, #48	; 0x30
 4002f0c:	f7ff fe00 	bl	4002b10 <hash_from_rom>
 4002f10:	4603      	mov	r3, r0
 4002f12:	2800      	cmp	r0, #0
 4002f14:	f040 8371 	bne.w	40035fa <iot_patch+0x97a>
 4002f18:	9916      	ldr	r1, [sp, #88]	; 0x58
 4002f1a:	9a0c      	ldr	r2, [sp, #48]	; 0x30
 4002f1c:	4291      	cmp	r1, r2
 4002f1e:	f040 830d 	bne.w	400353c <iot_patch+0x8bc>
 4002f22:	9c09      	ldr	r4, [sp, #36]	; 0x24
 4002f24:	9e05      	ldr	r6, [sp, #20]
 4002f26:	4f49      	ldr	r7, [pc, #292]	; (400304c <iot_patch+0x3cc>)
 4002f28:	4434      	add	r4, r6
 4002f2a:	4621      	mov	r1, r4
 4002f2c:	4628      	mov	r0, r5
 4002f2e:	603b      	str	r3, [r7, #0]
 4002f30:	f7fe ff38 	bl	4001da4 <rock_progress>
 4002f34:	9b0f      	ldr	r3, [sp, #60]	; 0x3c
 4002f36:	2b00      	cmp	r3, #0
 4002f38:	f040 80d2 	bne.w	40030e0 <iot_patch+0x460>
 4002f3c:	4628      	mov	r0, r5
 4002f3e:	4946      	ldr	r1, [pc, #280]	; (4003058 <iot_patch+0x3d8>)
 4002f40:	9304      	str	r3, [sp, #16]
 4002f42:	465a      	mov	r2, fp
 4002f44:	f7fe ff0a 	bl	4001d5c <rock_trace>
 4002f48:	f8d9 0004 	ldr.w	r0, [r9, #4]
 4002f4c:	9a10      	ldr	r2, [sp, #64]	; 0x40
 4002f4e:	9b04      	ldr	r3, [sp, #16]
 4002f50:	9915      	ldr	r1, [sp, #84]	; 0x54
 4002f52:	9100      	str	r1, [sp, #0]
 4002f54:	af0d      	add	r7, sp, #52	; 0x34
 4002f56:	ae0e      	add	r6, sp, #56	; 0x38
 4002f58:	4402      	add	r2, r0
 4002f5a:	9814      	ldr	r0, [sp, #80]	; 0x50
 4002f5c:	9001      	str	r0, [sp, #4]
 4002f5e:	4619      	mov	r1, r3
 4002f60:	9702      	str	r7, [sp, #8]
 4002f62:	9b11      	ldr	r3, [sp, #68]	; 0x44
 4002f64:	9603      	str	r6, [sp, #12]
 4002f66:	4648      	mov	r0, r9
 4002f68:	f7ff fb80 	bl	400266c <apply_patch_from_rom>
 4002f6c:	2800      	cmp	r0, #0
 4002f6e:	f040 8399 	bne.w	40036a4 <iot_patch+0xa24>
 4002f72:	9b0a      	ldr	r3, [sp, #40]	; 0x28
 4002f74:	4423      	add	r3, r4
 4002f76:	4619      	mov	r1, r3
 4002f78:	4628      	mov	r0, r5
 4002f7a:	9304      	str	r3, [sp, #16]
 4002f7c:	f7fe ff12 	bl	4001da4 <rock_progress>
 4002f80:	4628      	mov	r0, r5
 4002f82:	4936      	ldr	r1, [pc, #216]	; (400305c <iot_patch+0x3dc>)
 4002f84:	465a      	mov	r2, fp
 4002f86:	f7fe fee9 	bl	4001d5c <rock_trace>
 4002f8a:	aa48      	add	r2, sp, #288	; 0x120
 4002f8c:	6838      	ldr	r0, [r7, #0]
 4002f8e:	6831      	ldr	r1, [r6, #0]
 4002f90:	9c17      	ldr	r4, [sp, #92]	; 0x5c
 4002f92:	f000 fcb3 	bl	40038fc <iot_hash>
 4002f96:	9a48      	ldr	r2, [sp, #288]	; 0x120
 4002f98:	9b04      	ldr	r3, [sp, #16]
 4002f9a:	4294      	cmp	r4, r2
 4002f9c:	f040 831d 	bne.w	40035da <iot_patch+0x95a>
 4002fa0:	9c09      	ldr	r4, [sp, #36]	; 0x24
 4002fa2:	441c      	add	r4, r3
 4002fa4:	4621      	mov	r1, r4
 4002fa6:	4628      	mov	r0, r5
 4002fa8:	f7fe fefc 	bl	4001da4 <rock_progress>
 4002fac:	6832      	ldr	r2, [r6, #0]
 4002fae:	9b12      	ldr	r3, [sp, #72]	; 0x48
 4002fb0:	9200      	str	r2, [sp, #0]
 4002fb2:	4628      	mov	r0, r5
 4002fb4:	465a      	mov	r2, fp
 4002fb6:	492a      	ldr	r1, [pc, #168]	; (4003060 <iot_patch+0x3e0>)
 4002fb8:	f7fe fed0 	bl	4001d5c <rock_trace>
 4002fbc:	9812      	ldr	r0, [sp, #72]	; 0x48
 4002fbe:	f8d9 3004 	ldr.w	r3, [r9, #4]
 4002fc2:	6832      	ldr	r2, [r6, #0]
 4002fc4:	6839      	ldr	r1, [r7, #0]
 4002fc6:	4403      	add	r3, r0
 4002fc8:	a81a      	add	r0, sp, #104	; 0x68
 4002fca:	931c      	str	r3, [sp, #112]	; 0x70
 4002fcc:	f002 f90e 	bl	40051ec <block_stream_writenb>
 4002fd0:	a81a      	add	r0, sp, #104	; 0x68
 4002fd2:	f002 f8ef 	bl	40051b4 <block_stream_flush>
 4002fd6:	990a      	ldr	r1, [sp, #40]	; 0x28
 4002fd8:	4628      	mov	r0, r5
 4002fda:	4421      	add	r1, r4
 4002fdc:	f7fe fee2 	bl	4001da4 <rock_progress>
 4002fe0:	4628      	mov	r0, r5
 4002fe2:	465a      	mov	r2, fp
 4002fe4:	6833      	ldr	r3, [r6, #0]
 4002fe6:	491f      	ldr	r1, [pc, #124]	; (4003064 <iot_patch+0x3e4>)
 4002fe8:	f7fe feb8 	bl	4001d5c <rock_trace>
 4002fec:	6838      	ldr	r0, [r7, #0]
 4002fee:	f002 f863 	bl	40050b8 <vex_free>
 4002ff2:	e075      	b.n	40030e0 <iot_patch+0x460>
 4002ff4:	4628      	mov	r0, r5
 4002ff6:	491c      	ldr	r1, [pc, #112]	; (4003068 <iot_patch+0x3e8>)
 4002ff8:	f7fe feb0 	bl	4001d5c <rock_trace>
 4002ffc:	e670      	b.n	4002ce0 <iot_patch+0x60>
 4002ffe:	465a      	mov	r2, fp
 4003000:	491a      	ldr	r1, [pc, #104]	; (400306c <iot_patch+0x3ec>)
 4003002:	4628      	mov	r0, r5
 4003004:	f7fe feaa 	bl	4001d5c <rock_trace>
 4003008:	4638      	mov	r0, r7
 400300a:	f002 f855 	bl	40050b8 <vex_free>
 400300e:	f06f 0603 	mvn.w	r6, #3
 4003012:	4628      	mov	r0, r5
 4003014:	f06f 0103 	mvn.w	r1, #3
 4003018:	f7fe fe9e 	bl	4001d58 <rock_fatal>
 400301c:	9606      	str	r6, [sp, #24]
 400301e:	4630      	mov	r0, r6
 4003020:	b06d      	add	sp, #436	; 0x1b4
 4003022:	e8bd 8ff0 	ldmia.w	sp!, {r4, r5, r6, r7, r8, r9, sl, fp, pc}
 4003026:	bf00      	nop
 4003028:	000006a4 	andeq	r0, r0, r4, lsr #13
 400302c:	04006a5c 	streq	r6, [r0], #-2652	; 0xa5c
 4003030:	04006a94 	streq	r6, [r0], #-2708	; 0xa94
 4003034:	04009c14 	streq	r9, [r0], #-3092	; 0xc14
 4003038:	04002ac9 	streq	r2, [r0], #-2761	; 0xac9
 400303c:	51eb851f 	mvnpl	r8, pc, lsl r5
 4003040:	66666667 	strbtvs	r6, [r6], -r7, ror #12
 4003044:	04006cd4 	streq	r6, [r0], #-3284	; 0xcd4
 4003048:	04006d70 	streq	r6, [r0], #-3440	; 0xd70
 400304c:	00000698 	muleq	r0, r8, r6
 4003050:	04006e38 	streq	r6, [r0], #-3640	; 0xe38
 4003054:	04006e54 	streq	r6, [r0], #-3668	; 0xe54
 4003058:	04006df0 	streq	r6, [r0], #-3568	; 0xdf0
 400305c:	04006bf8 	streq	r6, [r0], #-3064	; 0xbf8
 4003060:	04006e84 	streq	r6, [r0], #-3716	; 0xe84
 4003064:	04006b80 	streq	r6, [r0], #-2944	; 0xb80
 4003068:	0400698c 	streq	r6, [r0], #-2444	; 0x98c
 400306c:	04006a28 	streq	r6, [r0], #-2600	; 0xa28
 4003070:	f8d9 1010 	ldr.w	r1, [r9, #16]
 4003074:	ab0c      	add	r3, sp, #48	; 0x30
 4003076:	f7ff fd4b 	bl	4002b10 <hash_from_rom>
 400307a:	2800      	cmp	r0, #0
 400307c:	d159      	bne.n	4003132 <iot_patch+0x4b2>
 400307e:	9a17      	ldr	r2, [sp, #92]	; 0x5c
 4003080:	9b0c      	ldr	r3, [sp, #48]	; 0x30
 4003082:	429a      	cmp	r2, r3
 4003084:	4628      	mov	r0, r5
 4003086:	f040 81ec 	bne.w	4003462 <iot_patch+0x7e2>
 400308a:	49a0      	ldr	r1, [pc, #640]	; (400330c <iot_patch+0x68c>)
 400308c:	f7fe fe66 	bl	4001d5c <rock_trace>
 4003090:	489f      	ldr	r0, [pc, #636]	; (4003310 <iot_patch+0x690>)
 4003092:	9e12      	ldr	r6, [sp, #72]	; 0x48
 4003094:	6803      	ldr	r3, [r0, #0]
 4003096:	f8d9 1004 	ldr.w	r1, [r9, #4]
 400309a:	69da      	ldr	r2, [r3, #28]
 400309c:	9c13      	ldr	r4, [sp, #76]	; 0x4c
 400309e:	440e      	add	r6, r1
 40030a0:	2a00      	cmp	r2, #0
 40030a2:	f000 81e2 	beq.w	400346a <iot_patch+0x7ea>
 40030a6:	691f      	ldr	r7, [r3, #16]
 40030a8:	4623      	mov	r3, r4
 40030aa:	4632      	mov	r2, r6
 40030ac:	4628      	mov	r0, r5
 40030ae:	4639      	mov	r1, r7
 40030b0:	f7fe fe98 	bl	4001de4 <rock_write_block>
 40030b4:	4602      	mov	r2, r0
 40030b6:	4896      	ldr	r0, [pc, #600]	; (4003310 <iot_patch+0x690>)
 40030b8:	6803      	ldr	r3, [r0, #0]
 40030ba:	69db      	ldr	r3, [r3, #28]
 40030bc:	b923      	cbnz	r3, 40030c8 <iot_patch+0x448>
 40030be:	4638      	mov	r0, r7
 40030c0:	9204      	str	r2, [sp, #16]
 40030c2:	f001 fff9 	bl	40050b8 <vex_free>
 40030c6:	9a04      	ldr	r2, [sp, #16]
 40030c8:	9200      	str	r2, [sp, #0]
 40030ca:	4623      	mov	r3, r4
 40030cc:	4632      	mov	r2, r6
 40030ce:	4628      	mov	r0, r5
 40030d0:	4990      	ldr	r1, [pc, #576]	; (4003314 <iot_patch+0x694>)
 40030d2:	f7fe fe43 	bl	4001d5c <rock_trace>
 40030d6:	465a      	mov	r2, fp
 40030d8:	4628      	mov	r0, r5
 40030da:	498f      	ldr	r1, [pc, #572]	; (4003318 <iot_patch+0x698>)
 40030dc:	f7fe fe3e 	bl	4001d5c <rock_trace>
 40030e0:	eb0a 038a 	add.w	r3, sl, sl, lsl #2
 40030e4:	9e08      	ldr	r6, [sp, #32]
 40030e6:	011b      	lsls	r3, r3, #4
 40030e8:	fb93 f3f6 	sdiv	r3, r3, r6
 40030ec:	3314      	adds	r3, #20
 40030ee:	4619      	mov	r1, r3
 40030f0:	4628      	mov	r0, r5
 40030f2:	9305      	str	r3, [sp, #20]
 40030f4:	4654      	mov	r4, sl
 40030f6:	f7fe fe55 	bl	4001da4 <rock_progress>
 40030fa:	9e08      	ldr	r6, [sp, #32]
 40030fc:	42a6      	cmp	r6, r4
 40030fe:	f10a 0a01 	add.w	sl, sl, #1
 4003102:	f73f aeb3 	bgt.w	4002e6c <iot_patch+0x1ec>
 4003106:	a81a      	add	r0, sp, #104	; 0x68
 4003108:	f002 f854 	bl	40051b4 <block_stream_flush>
 400310c:	4c83      	ldr	r4, [pc, #524]	; (400331c <iot_patch+0x69c>)
 400310e:	4984      	ldr	r1, [pc, #528]	; (4003320 <iot_patch+0x6a0>)
 4003110:	4602      	mov	r2, r0
 4003112:	4628      	mov	r0, r5
 4003114:	f7fe fe22 	bl	4001d5c <rock_trace>
 4003118:	a81a      	add	r0, sp, #104	; 0x68
 400311a:	f002 f91d 	bl	4005358 <block_stream_free>
 400311e:	6820      	ldr	r0, [r4, #0]
 4003120:	b128      	cbz	r0, 400312e <iot_patch+0x4ae>
 4003122:	f001 ffc9 	bl	40050b8 <vex_free>
 4003126:	4a7f      	ldr	r2, [pc, #508]	; (4003324 <iot_patch+0x6a4>)
 4003128:	2300      	movs	r3, #0
 400312a:	6013      	str	r3, [r2, #0]
 400312c:	6023      	str	r3, [r4, #0]
 400312e:	9806      	ldr	r0, [sp, #24]
 4003130:	e776      	b.n	4003020 <iot_patch+0x3a0>
 4003132:	9006      	str	r0, [sp, #24]
 4003134:	b06d      	add	sp, #436	; 0x1b4
 4003136:	e8bd 8ff0 	ldmia.w	sp!, {r4, r5, r6, r7, r8, r9, sl, fp, pc}
 400313a:	9a38      	ldr	r2, [sp, #224]	; 0xe0
 400313c:	f8d9 1004 	ldr.w	r1, [r9, #4]
 4003140:	ab0c      	add	r3, sp, #48	; 0x30
 4003142:	4628      	mov	r0, r5
 4003144:	f7ff fce4 	bl	4002b10 <hash_from_rom>
 4003148:	9a3a      	ldr	r2, [sp, #232]	; 0xe8
 400314a:	9b0c      	ldr	r3, [sp, #48]	; 0x30
 400314c:	429a      	cmp	r2, r3
 400314e:	f43f ae4a 	beq.w	4002de6 <iot_patch+0x166>
 4003152:	4628      	mov	r0, r5
 4003154:	f06f 0701 	mvn.w	r7, #1
 4003158:	4973      	ldr	r1, [pc, #460]	; (4003328 <iot_patch+0x6a8>)
 400315a:	f7fe fdff 	bl	4001d5c <rock_trace>
 400315e:	9706      	str	r7, [sp, #24]
 4003160:	4638      	mov	r0, r7
 4003162:	e75d      	b.n	4003020 <iot_patch+0x3a0>
 4003164:	4628      	mov	r0, r5
 4003166:	f7fe feb3 	bl	4001ed0 <rock_get_blocksize>
 400316a:	4606      	mov	r6, r0
 400316c:	f001 fed8 	bl	4004f20 <vex_malloc>
 4003170:	4604      	mov	r4, r0
 4003172:	2800      	cmp	r0, #0
 4003174:	f000 8216 	beq.w	40035a4 <iot_patch+0x924>
 4003178:	9a14      	ldr	r2, [sp, #80]	; 0x50
 400317a:	9b12      	ldr	r3, [sp, #72]	; 0x48
 400317c:	9200      	str	r2, [sp, #0]
 400317e:	4628      	mov	r0, r5
 4003180:	496a      	ldr	r1, [pc, #424]	; (400332c <iot_patch+0x6ac>)
 4003182:	465a      	mov	r2, fp
 4003184:	f7fe fdea 	bl	4001d5c <rock_trace>
 4003188:	9912      	ldr	r1, [sp, #72]	; 0x48
 400318a:	f8d9 2004 	ldr.w	r2, [r9, #4]
 400318e:	9b14      	ldr	r3, [sp, #80]	; 0x50
 4003190:	4867      	ldr	r0, [pc, #412]	; (4003330 <iot_patch+0x6b0>)
 4003192:	9024      	str	r0, [sp, #144]	; 0x90
 4003194:	440a      	add	r2, r1
 4003196:	921c      	str	r2, [sp, #112]	; 0x70
 4003198:	2b00      	cmp	r3, #0
 400319a:	f000 81cd 	beq.w	4003538 <iot_patch+0x8b8>
 400319e:	2700      	movs	r7, #0
 40031a0:	e007      	b.n	40031b2 <iot_patch+0x532>
 40031a2:	441f      	add	r7, r3
 40031a4:	f2c0 814f 	blt.w	4003446 <iot_patch+0x7c6>
 40031a8:	f002 f820 	bl	40051ec <block_stream_writenb>
 40031ac:	9b14      	ldr	r3, [sp, #80]	; 0x50
 40031ae:	42bb      	cmp	r3, r7
 40031b0:	d90e      	bls.n	40031d0 <iot_patch+0x550>
 40031b2:	9a15      	ldr	r2, [sp, #84]	; 0x54
 40031b4:	1bdb      	subs	r3, r3, r7
 40031b6:	42b3      	cmp	r3, r6
 40031b8:	bf28      	it	cs
 40031ba:	4633      	movcs	r3, r6
 40031bc:	443a      	add	r2, r7
 40031be:	4621      	mov	r1, r4
 40031c0:	4628      	mov	r0, r5
 40031c2:	f7fe fe6b 	bl	4001e9c <rock_read_delta>
 40031c6:	1e03      	subs	r3, r0, #0
 40031c8:	4621      	mov	r1, r4
 40031ca:	461a      	mov	r2, r3
 40031cc:	a81a      	add	r0, sp, #104	; 0x68
 40031ce:	d1e8      	bne.n	40031a2 <iot_patch+0x522>
 40031d0:	a81a      	add	r0, sp, #104	; 0x68
 40031d2:	f001 ffef 	bl	40051b4 <block_stream_flush>
 40031d6:	990b      	ldr	r1, [sp, #44]	; 0x2c
 40031d8:	9e05      	ldr	r6, [sp, #20]
 40031da:	4628      	mov	r0, r5
 40031dc:	4431      	add	r1, r6
 40031de:	f7fe fde1 	bl	4001da4 <rock_progress>
 40031e2:	463b      	mov	r3, r7
 40031e4:	4628      	mov	r0, r5
 40031e6:	465a      	mov	r2, fp
 40031e8:	4952      	ldr	r1, [pc, #328]	; (4003334 <iot_patch+0x6b4>)
 40031ea:	4f53      	ldr	r7, [pc, #332]	; (4003338 <iot_patch+0x6b8>)
 40031ec:	f7fe fdb6 	bl	4001d5c <rock_trace>
 40031f0:	4620      	mov	r0, r4
 40031f2:	f001 ff61 	bl	40050b8 <vex_free>
 40031f6:	9724      	str	r7, [sp, #144]	; 0x90
 40031f8:	e772      	b.n	40030e0 <iot_patch+0x460>
 40031fa:	9b38      	ldr	r3, [sp, #224]	; 0xe0
 40031fc:	9a39      	ldr	r2, [sp, #228]	; 0xe4
 40031fe:	9e05      	ldr	r6, [sp, #20]
 4003200:	429a      	cmp	r2, r3
 4003202:	bf38      	it	cc
 4003204:	461a      	movcc	r2, r3
 4003206:	fbb2 f3f6 	udiv	r3, r2, r6
 400320a:	fb06 2213 	mls	r2, r6, r3, r2
 400320e:	2a00      	cmp	r2, #0
 4003210:	f040 8115 	bne.w	400343e <iot_patch+0x7be>
 4003214:	4a43      	ldr	r2, [pc, #268]	; (4003324 <iot_patch+0x6a4>)
 4003216:	461c      	mov	r4, r3
 4003218:	6013      	str	r3, [r2, #0]
 400321a:	0124      	lsls	r4, r4, #4
 400321c:	4620      	mov	r0, r4
 400321e:	f001 fe7f 	bl	4004f20 <vex_malloc>
 4003222:	4f3e      	ldr	r7, [pc, #248]	; (400331c <iot_patch+0x69c>)
 4003224:	4622      	mov	r2, r4
 4003226:	6038      	str	r0, [r7, #0]
 4003228:	2800      	cmp	r0, #0
 400322a:	f000 81bc 	beq.w	40035a6 <iot_patch+0x926>
 400322e:	2100      	movs	r1, #0
 4003230:	f002 f9be 	bl	40055b0 <memset>
 4003234:	e5bf      	b.n	4002db6 <iot_patch+0x136>
 4003236:	9819      	ldr	r0, [sp, #100]	; 0x64
 4003238:	3002      	adds	r0, #2
 400323a:	f001 fe71 	bl	4004f20 <vex_malloc>
 400323e:	9a19      	ldr	r2, [sp, #100]	; 0x64
 4003240:	4604      	mov	r4, r0
 4003242:	2800      	cmp	r0, #0
 4003244:	f000 8157 	beq.w	40034f6 <iot_patch+0x876>
 4003248:	2100      	movs	r1, #0
 400324a:	3202      	adds	r2, #2
 400324c:	f002 f9b0 	bl	40055b0 <memset>
 4003250:	4621      	mov	r1, r4
 4003252:	9a18      	ldr	r2, [sp, #96]	; 0x60
 4003254:	9b19      	ldr	r3, [sp, #100]	; 0x64
 4003256:	4628      	mov	r0, r5
 4003258:	f7fe fe20 	bl	4001e9c <rock_read_delta>
 400325c:	4621      	mov	r1, r4
 400325e:	4628      	mov	r0, r5
 4003260:	f7fe fe3d 	bl	4001ede <rock_delete_file>
 4003264:	4620      	mov	r0, r4
 4003266:	f001 ff27 	bl	40050b8 <vex_free>
 400326a:	4654      	mov	r4, sl
 400326c:	e745      	b.n	40030fa <iot_patch+0x47a>
 400326e:	4a33      	ldr	r2, [pc, #204]	; (400333c <iot_patch+0x6bc>)
 4003270:	a828      	add	r0, sp, #160	; 0xa0
 4003272:	6811      	ldr	r1, [r2, #0]
 4003274:	2200      	movs	r2, #0
 4003276:	f002 f847 	bl	4005308 <block_stream_init>
 400327a:	4a31      	ldr	r2, [pc, #196]	; (4003340 <iot_patch+0x6c0>)
 400327c:	9b15      	ldr	r3, [sp, #84]	; 0x54
 400327e:	9231      	str	r2, [sp, #196]	; 0xc4
 4003280:	a928      	add	r1, sp, #160	; 0xa0
 4003282:	a848      	add	r0, sp, #288	; 0x120
 4003284:	932a      	str	r3, [sp, #168]	; 0xa8
 4003286:	9528      	str	r5, [sp, #160]	; 0xa0
 4003288:	f002 f87e 	bl	4005388 <lzma_stream_init>
 400328c:	9813      	ldr	r0, [sp, #76]	; 0x4c
 400328e:	f001 fe47 	bl	4004f20 <vex_malloc>
 4003292:	900d      	str	r0, [sp, #52]	; 0x34
 4003294:	2800      	cmp	r0, #0
 4003296:	f000 81ca 	beq.w	400362e <iot_patch+0x9ae>
 400329a:	9b13      	ldr	r3, [sp, #76]	; 0x4c
 400329c:	930e      	str	r3, [sp, #56]	; 0x38
 400329e:	4601      	mov	r1, r0
 40032a0:	461a      	mov	r2, r3
 40032a2:	a848      	add	r0, sp, #288	; 0x120
 40032a4:	f002 f8f2 	bl	400548c <lzma_stream_readnb>
 40032a8:	4604      	mov	r4, r0
 40032aa:	a848      	add	r0, sp, #288	; 0x120
 40032ac:	f002 f85c 	bl	4005368 <lzma_stream_free>
 40032b0:	9b0e      	ldr	r3, [sp, #56]	; 0x38
 40032b2:	429c      	cmp	r4, r3
 40032b4:	f040 81b5 	bne.w	4003622 <iot_patch+0x9a2>
 40032b8:	9819      	ldr	r0, [sp, #100]	; 0x64
 40032ba:	3002      	adds	r0, #2
 40032bc:	f001 fe30 	bl	4004f20 <vex_malloc>
 40032c0:	9a19      	ldr	r2, [sp, #100]	; 0x64
 40032c2:	4604      	mov	r4, r0
 40032c4:	2800      	cmp	r0, #0
 40032c6:	f000 8183 	beq.w	40035d0 <iot_patch+0x950>
 40032ca:	2100      	movs	r1, #0
 40032cc:	3202      	adds	r2, #2
 40032ce:	f002 f96f 	bl	40055b0 <memset>
 40032d2:	4621      	mov	r1, r4
 40032d4:	9a18      	ldr	r2, [sp, #96]	; 0x60
 40032d6:	9b19      	ldr	r3, [sp, #100]	; 0x64
 40032d8:	4628      	mov	r0, r5
 40032da:	f7fe fddf 	bl	4001e9c <rock_read_delta>
 40032de:	9b0e      	ldr	r3, [sp, #56]	; 0x38
 40032e0:	9300      	str	r3, [sp, #0]
 40032e2:	9a0d      	ldr	r2, [sp, #52]	; 0x34
 40032e4:	2300      	movs	r3, #0
 40032e6:	4628      	mov	r0, r5
 40032e8:	4621      	mov	r1, r4
 40032ea:	f7fe fdf6 	bl	4001eda <rock_write_file>
 40032ee:	9b0e      	ldr	r3, [sp, #56]	; 0x38
 40032f0:	4298      	cmp	r0, r3
 40032f2:	f000 80d6 	beq.w	40034a2 <iot_patch+0x822>
 40032f6:	f06f 070b 	mvn.w	r7, #11
 40032fa:	4628      	mov	r0, r5
 40032fc:	f06f 010b 	mvn.w	r1, #11
 4003300:	f7fe fd2a 	bl	4001d58 <rock_fatal>
 4003304:	9706      	str	r7, [sp, #24]
 4003306:	4638      	mov	r0, r7
 4003308:	e68a      	b.n	4003020 <iot_patch+0x3a0>
 400330a:	bf00      	nop
 400330c:	04006d04 	streq	r6, [r0], #-3332	; 0xd04
 4003310:	000006a0 	andeq	r0, r0, r0, lsr #13
 4003314:	04006d24 	streq	r6, [r0], #-3364	; 0xd24
 4003318:	04006e14 	streq	r6, [r0], #-3604	; 0xe14
 400331c:	000006a4 	andeq	r0, r0, r4, lsr #13
 4003320:	04006ad4 	streq	r6, [r0], #-2772	; 0xad4
 4003324:	0000069c 	muleq	r0, ip, r6
 4003328:	04006a78 	streq	r6, [r0], #-2680	; 0xa78
 400332c:	04006c50 	streq	r6, [r0], #-3152	; 0xc50
 4003330:	04001de5 	streq	r1, [r0], #-3557	; 0xde5
 4003334:	04006cac 	streq	r6, [r0], #-3244	; 0xcac
 4003338:	04002ac9 	streq	r2, [r0], #-2761	; 0xac9
 400333c:	04009c14 	streq	r9, [r0], #-3092	; 0xc14
 4003340:	04001e9d 	streq	r1, [r0], #-3741	; 0xe9d
 4003344:	9819      	ldr	r0, [sp, #100]	; 0x64
 4003346:	3002      	adds	r0, #2
 4003348:	f001 fdea 	bl	4004f20 <vex_malloc>
 400334c:	9a19      	ldr	r2, [sp, #100]	; 0x64
 400334e:	4604      	mov	r4, r0
 4003350:	2800      	cmp	r0, #0
 4003352:	f000 813d 	beq.w	40035d0 <iot_patch+0x950>
 4003356:	2100      	movs	r1, #0
 4003358:	3202      	adds	r2, #2
 400335a:	f002 f929 	bl	40055b0 <memset>
 400335e:	4621      	mov	r1, r4
 4003360:	9a18      	ldr	r2, [sp, #96]	; 0x60
 4003362:	9b19      	ldr	r3, [sp, #100]	; 0x64
 4003364:	4628      	mov	r0, r5
 4003366:	f7fe fd99 	bl	4001e9c <rock_read_delta>
 400336a:	9811      	ldr	r0, [sp, #68]	; 0x44
 400336c:	f001 fdd8 	bl	4004f20 <vex_malloc>
 4003370:	4684      	mov	ip, r0
 4003372:	2800      	cmp	r0, #0
 4003374:	f000 8152 	beq.w	400361c <iot_patch+0x99c>
 4003378:	9b11      	ldr	r3, [sp, #68]	; 0x44
 400337a:	9300      	str	r3, [sp, #0]
 400337c:	4662      	mov	r2, ip
 400337e:	4621      	mov	r1, r4
 4003380:	2300      	movs	r3, #0
 4003382:	4628      	mov	r0, r5
 4003384:	f8cd c010 	str.w	ip, [sp, #16]
 4003388:	f7fe fda5 	bl	4001ed6 <rock_read_file>
 400338c:	f8dd c010 	ldr.w	ip, [sp, #16]
 4003390:	9915      	ldr	r1, [sp, #84]	; 0x54
 4003392:	9a14      	ldr	r2, [sp, #80]	; 0x50
 4003394:	9100      	str	r1, [sp, #0]
 4003396:	ae0d      	add	r6, sp, #52	; 0x34
 4003398:	af0e      	add	r7, sp, #56	; 0x38
 400339a:	9201      	str	r2, [sp, #4]
 400339c:	9b11      	ldr	r3, [sp, #68]	; 0x44
 400339e:	9602      	str	r6, [sp, #8]
 40033a0:	4661      	mov	r1, ip
 40033a2:	9703      	str	r7, [sp, #12]
 40033a4:	4628      	mov	r0, r5
 40033a6:	2200      	movs	r2, #0
 40033a8:	f7ff f960 	bl	400266c <apply_patch_from_rom>
 40033ac:	9007      	str	r0, [sp, #28]
 40033ae:	2800      	cmp	r0, #0
 40033b0:	f040 812a 	bne.w	4003608 <iot_patch+0x988>
 40033b4:	4628      	mov	r0, r5
 40033b6:	49a1      	ldr	r1, [pc, #644]	; (400363c <iot_patch+0x9bc>)
 40033b8:	465a      	mov	r2, fp
 40033ba:	f7fe fccf 	bl	4001d5c <rock_trace>
 40033be:	9b17      	ldr	r3, [sp, #92]	; 0x5c
 40033c0:	6830      	ldr	r0, [r6, #0]
 40033c2:	6839      	ldr	r1, [r7, #0]
 40033c4:	9304      	str	r3, [sp, #16]
 40033c6:	aa48      	add	r2, sp, #288	; 0x120
 40033c8:	f000 fa98 	bl	40038fc <iot_hash>
 40033cc:	9a48      	ldr	r2, [sp, #288]	; 0x120
 40033ce:	9b04      	ldr	r3, [sp, #16]
 40033d0:	4293      	cmp	r3, r2
 40033d2:	f040 80ed 	bne.w	40035b0 <iot_patch+0x930>
 40033d6:	9805      	ldr	r0, [sp, #20]
 40033d8:	9b09      	ldr	r3, [sp, #36]	; 0x24
 40033da:	4403      	add	r3, r0
 40033dc:	4619      	mov	r1, r3
 40033de:	4628      	mov	r0, r5
 40033e0:	9304      	str	r3, [sp, #16]
 40033e2:	f7fe fcdf 	bl	4001da4 <rock_progress>
 40033e6:	6839      	ldr	r1, [r7, #0]
 40033e8:	6832      	ldr	r2, [r6, #0]
 40033ea:	9b04      	ldr	r3, [sp, #16]
 40033ec:	9100      	str	r1, [sp, #0]
 40033ee:	990a      	ldr	r1, [sp, #40]	; 0x28
 40033f0:	4419      	add	r1, r3
 40033f2:	9105      	str	r1, [sp, #20]
 40033f4:	9b07      	ldr	r3, [sp, #28]
 40033f6:	4621      	mov	r1, r4
 40033f8:	4628      	mov	r0, r5
 40033fa:	f7fe fd6e 	bl	4001eda <rock_write_file>
 40033fe:	9905      	ldr	r1, [sp, #20]
 4003400:	4628      	mov	r0, r5
 4003402:	f7fe fccf 	bl	4001da4 <rock_progress>
 4003406:	465a      	mov	r2, fp
 4003408:	683b      	ldr	r3, [r7, #0]
 400340a:	498d      	ldr	r1, [pc, #564]	; (4003640 <iot_patch+0x9c0>)
 400340c:	4628      	mov	r0, r5
 400340e:	f7fe fca5 	bl	4001d5c <rock_trace>
 4003412:	6830      	ldr	r0, [r6, #0]
 4003414:	f001 fe50 	bl	40050b8 <vex_free>
 4003418:	4620      	mov	r0, r4
 400341a:	f001 fe4d 	bl	40050b8 <vex_free>
 400341e:	4654      	mov	r4, sl
 4003420:	e66b      	b.n	40030fa <iot_patch+0x47a>
 4003422:	4628      	mov	r0, r5
 4003424:	4987      	ldr	r1, [pc, #540]	; (4003644 <iot_patch+0x9c4>)
 4003426:	f7fe fc99 	bl	4001d5c <rock_trace>
 400342a:	f04f 37ff 	mov.w	r7, #4294967295
 400342e:	4628      	mov	r0, r5
 4003430:	f04f 31ff 	mov.w	r1, #4294967295
 4003434:	f7fe fc90 	bl	4001d58 <rock_fatal>
 4003438:	9706      	str	r7, [sp, #24]
 400343a:	4638      	mov	r0, r7
 400343c:	e5f0      	b.n	4003020 <iot_patch+0x3a0>
 400343e:	4a82      	ldr	r2, [pc, #520]	; (4003648 <iot_patch+0x9c8>)
 4003440:	1c5c      	adds	r4, r3, #1
 4003442:	6014      	str	r4, [r2, #0]
 4003444:	e6e9      	b.n	400321a <iot_patch+0x59a>
 4003446:	4628      	mov	r0, r5
 4003448:	4980      	ldr	r1, [pc, #512]	; (400364c <iot_patch+0x9cc>)
 400344a:	f7fe fc87 	bl	4001d5c <rock_trace>
 400344e:	f06f 0703 	mvn.w	r7, #3
 4003452:	4628      	mov	r0, r5
 4003454:	f06f 0103 	mvn.w	r1, #3
 4003458:	f7fe fc7e 	bl	4001d58 <rock_fatal>
 400345c:	9706      	str	r7, [sp, #24]
 400345e:	4638      	mov	r0, r7
 4003460:	e5de      	b.n	4003020 <iot_patch+0x3a0>
 4003462:	497b      	ldr	r1, [pc, #492]	; (4003650 <iot_patch+0x9d0>)
 4003464:	f7fe fc7a 	bl	4001d5c <rock_trace>
 4003468:	e539      	b.n	4002ede <iot_patch+0x25e>
 400346a:	6958      	ldr	r0, [r3, #20]
 400346c:	f001 fd58 	bl	4004f20 <vex_malloc>
 4003470:	4978      	ldr	r1, [pc, #480]	; (4003654 <iot_patch+0x9d4>)
 4003472:	680b      	ldr	r3, [r1, #0]
 4003474:	4607      	mov	r7, r0
 4003476:	4601      	mov	r1, r0
 4003478:	691a      	ldr	r2, [r3, #16]
 400347a:	4628      	mov	r0, r5
 400347c:	4623      	mov	r3, r4
 400347e:	f7fe fcf5 	bl	4001e6c <rock_read_block>
 4003482:	4603      	mov	r3, r0
 4003484:	e611      	b.n	40030aa <iot_patch+0x42a>
 4003486:	4628      	mov	r0, r5
 4003488:	4973      	ldr	r1, [pc, #460]	; (4003658 <iot_patch+0x9d8>)
 400348a:	f7fe fc67 	bl	4001d5c <rock_trace>
 400348e:	f04f 36ff 	mov.w	r6, #4294967295
 4003492:	4628      	mov	r0, r5
 4003494:	f04f 31ff 	mov.w	r1, #4294967295
 4003498:	f7fe fc5e 	bl	4001d58 <rock_fatal>
 400349c:	9606      	str	r6, [sp, #24]
 400349e:	4630      	mov	r0, r6
 40034a0:	e5be      	b.n	4003020 <iot_patch+0x3a0>
 40034a2:	9e05      	ldr	r6, [sp, #20]
 40034a4:	9f0a      	ldr	r7, [sp, #40]	; 0x28
 40034a6:	443e      	add	r6, r7
 40034a8:	4631      	mov	r1, r6
 40034aa:	4628      	mov	r0, r5
 40034ac:	9605      	str	r6, [sp, #20]
 40034ae:	f7fe fc79 	bl	4001da4 <rock_progress>
 40034b2:	465a      	mov	r2, fp
 40034b4:	9b0e      	ldr	r3, [sp, #56]	; 0x38
 40034b6:	4962      	ldr	r1, [pc, #392]	; (4003640 <iot_patch+0x9c0>)
 40034b8:	4628      	mov	r0, r5
 40034ba:	f7fe fc4f 	bl	4001d5c <rock_trace>
 40034be:	980d      	ldr	r0, [sp, #52]	; 0x34
 40034c0:	f001 fdfa 	bl	40050b8 <vex_free>
 40034c4:	4620      	mov	r0, r4
 40034c6:	f001 fdf7 	bl	40050b8 <vex_free>
 40034ca:	4654      	mov	r4, sl
 40034cc:	e615      	b.n	40030fa <iot_patch+0x47a>
 40034ce:	4628      	mov	r0, r5
 40034d0:	4962      	ldr	r1, [pc, #392]	; (400365c <iot_patch+0x9dc>)
 40034d2:	f7fe fc43 	bl	4001d5c <rock_trace>
 40034d6:	9806      	ldr	r0, [sp, #24]
 40034d8:	e5a2      	b.n	4003020 <iot_patch+0x3a0>
 40034da:	4628      	mov	r0, r5
 40034dc:	4960      	ldr	r1, [pc, #384]	; (4003660 <iot_patch+0x9e0>)
 40034de:	f7fe fc3d 	bl	4001d5c <rock_trace>
 40034e2:	f06f 0701 	mvn.w	r7, #1
 40034e6:	4628      	mov	r0, r5
 40034e8:	f06f 0101 	mvn.w	r1, #1
 40034ec:	f7fe fc34 	bl	4001d58 <rock_fatal>
 40034f0:	9706      	str	r7, [sp, #24]
 40034f2:	4638      	mov	r0, r7
 40034f4:	e594      	b.n	4003020 <iot_patch+0x3a0>
 40034f6:	495b      	ldr	r1, [pc, #364]	; (4003664 <iot_patch+0x9e4>)
 40034f8:	4628      	mov	r0, r5
 40034fa:	f7fe fc2f 	bl	4001d5c <rock_trace>
 40034fe:	f06f 0713 	mvn.w	r7, #19
 4003502:	4628      	mov	r0, r5
 4003504:	f06f 0113 	mvn.w	r1, #19
 4003508:	f7fe fc26 	bl	4001d58 <rock_fatal>
 400350c:	9706      	str	r7, [sp, #24]
 400350e:	4638      	mov	r0, r7
 4003510:	e586      	b.n	4003020 <iot_patch+0x3a0>
 4003512:	f06f 071d 	mvn.w	r7, #29
 4003516:	9706      	str	r7, [sp, #24]
 4003518:	4638      	mov	r0, r7
 400351a:	e581      	b.n	4003020 <iot_patch+0x3a0>
 400351c:	4628      	mov	r0, r5
 400351e:	4952      	ldr	r1, [pc, #328]	; (4003668 <iot_patch+0x9e8>)
 4003520:	f7fe fc1c 	bl	4001d5c <rock_trace>
 4003524:	f06f 0613 	mvn.w	r6, #19
 4003528:	4628      	mov	r0, r5
 400352a:	f06f 0113 	mvn.w	r1, #19
 400352e:	f7fe fc13 	bl	4001d58 <rock_fatal>
 4003532:	9606      	str	r6, [sp, #24]
 4003534:	4630      	mov	r0, r6
 4003536:	e573      	b.n	4003020 <iot_patch+0x3a0>
 4003538:	461f      	mov	r7, r3
 400353a:	e649      	b.n	40031d0 <iot_patch+0x550>
 400353c:	4628      	mov	r0, r5
 400353e:	494b      	ldr	r1, [pc, #300]	; (400366c <iot_patch+0x9ec>)
 4003540:	f7fe fc0c 	bl	4001d5c <rock_trace>
 4003544:	9813      	ldr	r0, [sp, #76]	; 0x4c
 4003546:	f001 fceb 	bl	4004f20 <vex_malloc>
 400354a:	4604      	mov	r4, r0
 400354c:	2800      	cmp	r0, #0
 400354e:	f000 80a3 	beq.w	4003698 <iot_patch+0xa18>
 4003552:	f8d9 6004 	ldr.w	r6, [r9, #4]
 4003556:	9a12      	ldr	r2, [sp, #72]	; 0x48
 4003558:	9816      	ldr	r0, [sp, #88]	; 0x58
 400355a:	9917      	ldr	r1, [sp, #92]	; 0x5c
 400355c:	9b13      	ldr	r3, [sp, #76]	; 0x4c
 400355e:	9000      	str	r0, [sp, #0]
 4003560:	4432      	add	r2, r6
 4003562:	9101      	str	r1, [sp, #4]
 4003564:	4628      	mov	r0, r5
 4003566:	4621      	mov	r1, r4
 4003568:	f7fe fbf4 	bl	4001d54 <rock_mismatch>
 400356c:	4620      	mov	r0, r4
 400356e:	f001 fda3 	bl	40050b8 <vex_free>
 4003572:	4628      	mov	r0, r5
 4003574:	9a0c      	ldr	r2, [sp, #48]	; 0x30
 4003576:	493e      	ldr	r1, [pc, #248]	; (4003670 <iot_patch+0x9f0>)
 4003578:	f7fe fbf0 	bl	4001d5c <rock_trace>
 400357c:	4628      	mov	r0, r5
 400357e:	493d      	ldr	r1, [pc, #244]	; (4003674 <iot_patch+0x9f4>)
 4003580:	9a17      	ldr	r2, [sp, #92]	; 0x5c
 4003582:	f7fe fbeb 	bl	4001d5c <rock_trace>
 4003586:	4628      	mov	r0, r5
 4003588:	9a16      	ldr	r2, [sp, #88]	; 0x58
 400358a:	493b      	ldr	r1, [pc, #236]	; (4003678 <iot_patch+0x9f8>)
 400358c:	f7fe fbe6 	bl	4001d5c <rock_trace>
 4003590:	f06f 0702 	mvn.w	r7, #2
 4003594:	4628      	mov	r0, r5
 4003596:	f06f 0102 	mvn.w	r1, #2
 400359a:	f7fe fbdd 	bl	4001d58 <rock_fatal>
 400359e:	9706      	str	r7, [sp, #24]
 40035a0:	4638      	mov	r0, r7
 40035a2:	e53d      	b.n	4003020 <iot_patch+0x3a0>
 40035a4:	4632      	mov	r2, r6
 40035a6:	4628      	mov	r0, r5
 40035a8:	4934      	ldr	r1, [pc, #208]	; (400367c <iot_patch+0x9fc>)
 40035aa:	f7fe fbd7 	bl	4001d5c <rock_trace>
 40035ae:	e7b9      	b.n	4003524 <iot_patch+0x8a4>
 40035b0:	4628      	mov	r0, r5
 40035b2:	4933      	ldr	r1, [pc, #204]	; (4003680 <iot_patch+0xa00>)
 40035b4:	f7fe fbd2 	bl	4001d5c <rock_trace>
 40035b8:	f04f 37ff 	mov.w	r7, #4294967295
 40035bc:	4628      	mov	r0, r5
 40035be:	465a      	mov	r2, fp
 40035c0:	4930      	ldr	r1, [pc, #192]	; (4003684 <iot_patch+0xa04>)
 40035c2:	f04f 33ff 	mov.w	r3, #4294967295
 40035c6:	f7fe fbc9 	bl	4001d5c <rock_trace>
 40035ca:	9706      	str	r7, [sp, #24]
 40035cc:	4638      	mov	r0, r7
 40035ce:	e527      	b.n	4003020 <iot_patch+0x3a0>
 40035d0:	4924      	ldr	r1, [pc, #144]	; (4003664 <iot_patch+0x9e4>)
 40035d2:	4628      	mov	r0, r5
 40035d4:	f7fe fbc2 	bl	4001d5c <rock_trace>
 40035d8:	e7a4      	b.n	4003524 <iot_patch+0x8a4>
 40035da:	4628      	mov	r0, r5
 40035dc:	4928      	ldr	r1, [pc, #160]	; (4003680 <iot_patch+0xa00>)
 40035de:	f7fe fbbd 	bl	4001d5c <rock_trace>
 40035e2:	f04f 36ff 	mov.w	r6, #4294967295
 40035e6:	4628      	mov	r0, r5
 40035e8:	465a      	mov	r2, fp
 40035ea:	4926      	ldr	r1, [pc, #152]	; (4003684 <iot_patch+0xa04>)
 40035ec:	f04f 33ff 	mov.w	r3, #4294967295
 40035f0:	f7fe fbb4 	bl	4001d5c <rock_trace>
 40035f4:	9606      	str	r6, [sp, #24]
 40035f6:	4630      	mov	r0, r6
 40035f8:	e512      	b.n	4003020 <iot_patch+0x3a0>
 40035fa:	9306      	str	r3, [sp, #24]
 40035fc:	4618      	mov	r0, r3
 40035fe:	e50f      	b.n	4003020 <iot_patch+0x3a0>
 4003600:	4652      	mov	r2, sl
 4003602:	4628      	mov	r0, r5
 4003604:	491d      	ldr	r1, [pc, #116]	; (400367c <iot_patch+0x9fc>)
 4003606:	e778      	b.n	40034fa <iot_patch+0x87a>
 4003608:	4603      	mov	r3, r0
 400360a:	465a      	mov	r2, fp
 400360c:	4628      	mov	r0, r5
 400360e:	491e      	ldr	r1, [pc, #120]	; (4003688 <iot_patch+0xa08>)
 4003610:	f7fe fba4 	bl	4001d5c <rock_trace>
 4003614:	9e07      	ldr	r6, [sp, #28]
 4003616:	9606      	str	r6, [sp, #24]
 4003618:	4630      	mov	r0, r6
 400361a:	e501      	b.n	4003020 <iot_patch+0x3a0>
 400361c:	9a11      	ldr	r2, [sp, #68]	; 0x44
 400361e:	491b      	ldr	r1, [pc, #108]	; (400368c <iot_patch+0xa0c>)
 4003620:	e76a      	b.n	40034f8 <iot_patch+0x878>
 4003622:	4622      	mov	r2, r4
 4003624:	4628      	mov	r0, r5
 4003626:	491a      	ldr	r1, [pc, #104]	; (4003690 <iot_patch+0xa10>)
 4003628:	f7fe fb98 	bl	4001d5c <rock_trace>
 400362c:	e70f      	b.n	400344e <iot_patch+0x7ce>
 400362e:	9a13      	ldr	r2, [sp, #76]	; 0x4c
 4003630:	4918      	ldr	r1, [pc, #96]	; (4003694 <iot_patch+0xa14>)
 4003632:	4628      	mov	r0, r5
 4003634:	f7fe fb92 	bl	4001d5c <rock_trace>
 4003638:	e774      	b.n	4003524 <iot_patch+0x8a4>
 400363a:	bf00      	nop
 400363c:	04006bf8 	streq	r6, [r0], #-3064	; 0xbf8
 4003640:	04006b80 	streq	r6, [r0], #-2944	; 0xb80
 4003644:	040069c0 	streq	r6, [r0], #-2496	; 0x9c0
 4003648:	0000069c 	muleq	r0, ip, r6
 400364c:	04006c88 	streq	r6, [r0], #-3208	; 0xc88
 4003650:	04006d50 	streq	r6, [r0], #-3408	; 0xd50
 4003654:	000006a0 	andeq	r0, r0, r0, lsr #13
 4003658:	040069e8 	streq	r6, [r0], #-2536	; 0x9e8
 400365c:	04006a6c 	streq	r6, [r0], #-2668	; 0xa6c
 4003660:	04006a4c 	streq	r6, [r0], #-2636	; 0xa4c
 4003664:	04006af0 	streq	r6, [r0], #-2800	; 0xaf0
 4003668:	04006aac 	streq	r6, [r0], #-2732	; 0xaac
 400366c:	04006da0 	streq	r6, [r0], #-3488	; 0xda0
 4003670:	04006db8 	streq	r6, [r0], #-3512	; 0xdb8
 4003674:	04006dc8 	streq	r6, [r0], #-3528	; 0xdc8
 4003678:	04006ddc 	streq	r6, [r0], #-3548	; 0xddc
 400367c:	04006920 	streq	r6, [r0], #-2336	; 0x920
 4003680:	04006c18 	streq	r6, [r0], #-3096	; 0xc18
 4003684:	04006c2c 	streq	r6, [r0], #-3116	; 0xc2c
 4003688:	04006bcc 	streq	r6, [r0], #-3020	; 0xbcc
 400368c:	04006bac 	streq	r6, [r0], #-2988	; 0xbac
 4003690:	04006b4c 	streq	r6, [r0], #-2892	; 0xb4c
 4003694:	04006b24 	streq	r6, [r0], #-2852	; 0xb24
 4003698:	9a13      	ldr	r2, [sp, #76]	; 0x4c
 400369a:	490a      	ldr	r1, [pc, #40]	; (40036c4 <iot_patch+0xa44>)
 400369c:	4628      	mov	r0, r5
 400369e:	f7fe fb5d 	bl	4001d5c <rock_trace>
 40036a2:	e73f      	b.n	4003524 <iot_patch+0x8a4>
 40036a4:	4684      	mov	ip, r0
 40036a6:	4663      	mov	r3, ip
 40036a8:	4628      	mov	r0, r5
 40036aa:	465a      	mov	r2, fp
 40036ac:	4906      	ldr	r1, [pc, #24]	; (40036c8 <iot_patch+0xa48>)
 40036ae:	f8cd c010 	str.w	ip, [sp, #16]
 40036b2:	f7fe fb53 	bl	4001d5c <rock_trace>
 40036b6:	f8dd c010 	ldr.w	ip, [sp, #16]
 40036ba:	f8cd c018 	str.w	ip, [sp, #24]
 40036be:	4660      	mov	r0, ip
 40036c0:	e4ae      	b.n	4003020 <iot_patch+0x3a0>
 40036c2:	bf00      	nop
 40036c4:	04006920 	streq	r6, [r0], #-2336	; 0x920
 40036c8:	04006bcc 	streq	r6, [r0], #-3020	; 0xbcc

040036cc <iot_adler32>:
 40036cc:	2a01      	cmp	r2, #1
 40036ce:	e92d 0ff0 	stmdb	sp!, {r4, r5, r6, r7, r8, r9, sl, fp}
 40036d2:	460b      	mov	r3, r1
 40036d4:	ea4f 4610 	mov.w	r6, r0, lsr #16
 40036d8:	b280      	uxth	r0, r0
 40036da:	f000 8086 	beq.w	40037ea <iot_adler32+0x11e>
 40036de:	2900      	cmp	r1, #0
 40036e0:	f000 8106 	beq.w	40038f0 <iot_adler32+0x224>
 40036e4:	2a0f      	cmp	r2, #15
 40036e6:	d961      	bls.n	40037ac <iot_adler32+0xe0>
 40036e8:	f241 58af 	movw	r8, #5551	; 0x15af
 40036ec:	4542      	cmp	r2, r8
 40036ee:	f240 8092 	bls.w	4003816 <iot_adler32+0x14a>
 40036f2:	f8df c204 	ldr.w	ip, [pc, #516]	; 40038f8 <iot_adler32+0x22c>
 40036f6:	f5a2 52ad 	sub.w	r2, r2, #5536	; 0x15a0
 40036fa:	f503 57ad 	add.w	r7, r3, #5536	; 0x15a0
 40036fe:	3a10      	subs	r2, #16
 4003700:	3710      	adds	r7, #16
 4003702:	f893 a000 	ldrb.w	sl, [r3]
 4003706:	785c      	ldrb	r4, [r3, #1]
 4003708:	f893 b002 	ldrb.w	fp, [r3, #2]
 400370c:	f893 9003 	ldrb.w	r9, [r3, #3]
 4003710:	791d      	ldrb	r5, [r3, #4]
 4003712:	7959      	ldrb	r1, [r3, #5]
 4003714:	4482      	add	sl, r0
 4003716:	4454      	add	r4, sl
 4003718:	44a2      	add	sl, r4
 400371a:	445c      	add	r4, fp
 400371c:	eb04 0009 	add.w	r0, r4, r9
 4003720:	44a2      	add	sl, r4
 4003722:	f893 9006 	ldrb.w	r9, [r3, #6]
 4003726:	7a1c      	ldrb	r4, [r3, #8]
 4003728:	f893 b009 	ldrb.w	fp, [r3, #9]
 400372c:	4482      	add	sl, r0
 400372e:	4428      	add	r0, r5
 4003730:	4401      	add	r1, r0
 4003732:	79dd      	ldrb	r5, [r3, #7]
 4003734:	4482      	add	sl, r0
 4003736:	448a      	add	sl, r1
 4003738:	4449      	add	r1, r9
 400373a:	440d      	add	r5, r1
 400373c:	448a      	add	sl, r1
 400373e:	44aa      	add	sl, r5
 4003740:	4425      	add	r5, r4
 4003742:	7a9c      	ldrb	r4, [r3, #10]
 4003744:	7ad8      	ldrb	r0, [r3, #11]
 4003746:	7b19      	ldrb	r1, [r3, #12]
 4003748:	f893 900d 	ldrb.w	r9, [r3, #13]
 400374c:	44aa      	add	sl, r5
 400374e:	445d      	add	r5, fp
 4003750:	442c      	add	r4, r5
 4003752:	44aa      	add	sl, r5
 4003754:	eb0a 0504 	add.w	r5, sl, r4
 4003758:	4404      	add	r4, r0
 400375a:	4421      	add	r1, r4
 400375c:	7b98      	ldrb	r0, [r3, #14]
 400375e:	4425      	add	r5, r4
 4003760:	440d      	add	r5, r1
 4003762:	7bdc      	ldrb	r4, [r3, #15]
 4003764:	4449      	add	r1, r9
 4003766:	4408      	add	r0, r1
 4003768:	440d      	add	r5, r1
 400376a:	1829      	adds	r1, r5, r0
 400376c:	3310      	adds	r3, #16
 400376e:	4420      	add	r0, r4
 4003770:	4401      	add	r1, r0
 4003772:	42bb      	cmp	r3, r7
 4003774:	440e      	add	r6, r1
 4003776:	d1c4      	bne.n	4003702 <iot_adler32+0x36>
 4003778:	fbac 5400 	umull	r5, r4, ip, r0
 400377c:	fbac 5106 	umull	r5, r1, ip, r6
 4003780:	0be4      	lsrs	r4, r4, #15
 4003782:	0bc9      	lsrs	r1, r1, #15
 4003784:	ebc4 3704 	rsb	r7, r4, r4, lsl #12
 4003788:	ebc1 3501 	rsb	r5, r1, r1, lsl #12
 400378c:	eb04 1407 	add.w	r4, r4, r7, lsl #4
 4003790:	eb01 1105 	add.w	r1, r1, r5, lsl #4
 4003794:	4542      	cmp	r2, r8
 4003796:	ebc4 0000 	rsb	r0, r4, r0
 400379a:	ebc1 0606 	rsb	r6, r1, r6
 400379e:	d8aa      	bhi.n	40036f6 <iot_adler32+0x2a>
 40037a0:	bbba      	cbnz	r2, 4003812 <iot_adler32+0x146>
 40037a2:	ea40 4006 	orr.w	r0, r0, r6, lsl #16
 40037a6:	e8bd 0ff0 	ldmia.w	sp!, {r4, r5, r6, r7, r8, r9, sl, fp}
 40037aa:	4770      	bx	lr
 40037ac:	b132      	cbz	r2, 40037bc <iot_adler32+0xf0>
 40037ae:	440a      	add	r2, r1
 40037b0:	f813 1b01 	ldrb.w	r1, [r3], #1
 40037b4:	4408      	add	r0, r1
 40037b6:	4293      	cmp	r3, r2
 40037b8:	4406      	add	r6, r0
 40037ba:	d1f9      	bne.n	40037b0 <iot_adler32+0xe4>
 40037bc:	f64f 73f0 	movw	r3, #65520	; 0xfff0
 40037c0:	4298      	cmp	r0, r3
 40037c2:	4b4d      	ldr	r3, [pc, #308]	; (40038f8 <iot_adler32+0x22c>)
 40037c4:	fba3 1306 	umull	r1, r3, r3, r6
 40037c8:	ea4f 33d3 	mov.w	r3, r3, lsr #15
 40037cc:	ebc3 3203 	rsb	r2, r3, r3, lsl #12
 40037d0:	bf88      	it	hi
 40037d2:	f5a0 407f 	subhi.w	r0, r0, #65280	; 0xff00
 40037d6:	eb03 1302 	add.w	r3, r3, r2, lsl #4
 40037da:	bf88      	it	hi
 40037dc:	38f1      	subhi	r0, #241	; 0xf1
 40037de:	1af6      	subs	r6, r6, r3
 40037e0:	ea40 4006 	orr.w	r0, r0, r6, lsl #16
 40037e4:	e8bd 0ff0 	ldmia.w	sp!, {r4, r5, r6, r7, r8, r9, sl, fp}
 40037e8:	4770      	bx	lr
 40037ea:	780a      	ldrb	r2, [r1, #0]
 40037ec:	f64f 73f0 	movw	r3, #65520	; 0xfff0
 40037f0:	4410      	add	r0, r2
 40037f2:	4298      	cmp	r0, r3
 40037f4:	bf84      	itt	hi
 40037f6:	f5a0 407f 	subhi.w	r0, r0, #65280	; 0xff00
 40037fa:	38f1      	subhi	r0, #241	; 0xf1
 40037fc:	4406      	add	r6, r0
 40037fe:	f64f 73f0 	movw	r3, #65520	; 0xfff0
 4003802:	429e      	cmp	r6, r3
 4003804:	d9cd      	bls.n	40037a2 <iot_adler32+0xd6>
 4003806:	f5a6 467f 	sub.w	r6, r6, #65280	; 0xff00
 400380a:	3ef1      	subs	r6, #241	; 0xf1
 400380c:	ea40 4006 	orr.w	r0, r0, r6, lsl #16
 4003810:	e7c9      	b.n	40037a6 <iot_adler32+0xda>
 4003812:	2a0f      	cmp	r2, #15
 4003814:	d96e      	bls.n	40038f4 <iot_adler32+0x228>
 4003816:	4611      	mov	r1, r2
 4003818:	461c      	mov	r4, r3
 400381a:	f894 c000 	ldrb.w	ip, [r4]
 400381e:	7867      	ldrb	r7, [r4, #1]
 4003820:	f894 a002 	ldrb.w	sl, [r4, #2]
 4003824:	f894 9003 	ldrb.w	r9, [r4, #3]
 4003828:	f894 8004 	ldrb.w	r8, [r4, #4]
 400382c:	f894 b005 	ldrb.w	fp, [r4, #5]
 4003830:	79a5      	ldrb	r5, [r4, #6]
 4003832:	4484      	add	ip, r0
 4003834:	4467      	add	r7, ip
 4003836:	44bc      	add	ip, r7
 4003838:	4457      	add	r7, sl
 400383a:	eb07 0009 	add.w	r0, r7, r9
 400383e:	eb0c 0a07 	add.w	sl, ip, r7
 4003842:	4482      	add	sl, r0
 4003844:	4440      	add	r0, r8
 4003846:	4483      	add	fp, r0
 4003848:	f894 9007 	ldrb.w	r9, [r4, #7]
 400384c:	f894 8009 	ldrb.w	r8, [r4, #9]
 4003850:	7aa7      	ldrb	r7, [r4, #10]
 4003852:	f894 c00b 	ldrb.w	ip, [r4, #11]
 4003856:	4482      	add	sl, r0
 4003858:	445d      	add	r5, fp
 400385a:	7a20      	ldrb	r0, [r4, #8]
 400385c:	44da      	add	sl, fp
 400385e:	44aa      	add	sl, r5
 4003860:	444d      	add	r5, r9
 4003862:	4428      	add	r0, r5
 4003864:	44aa      	add	sl, r5
 4003866:	4482      	add	sl, r0
 4003868:	4440      	add	r0, r8
 400386a:	4407      	add	r7, r0
 400386c:	4482      	add	sl, r0
 400386e:	7b25      	ldrb	r5, [r4, #12]
 4003870:	f894 900d 	ldrb.w	r9, [r4, #13]
 4003874:	7ba0      	ldrb	r0, [r4, #14]
 4003876:	f894 800f 	ldrb.w	r8, [r4, #15]
 400387a:	44ba      	add	sl, r7
 400387c:	4467      	add	r7, ip
 400387e:	443d      	add	r5, r7
 4003880:	eb0a 0c07 	add.w	ip, sl, r7
 4003884:	eb0c 0705 	add.w	r7, ip, r5
 4003888:	444d      	add	r5, r9
 400388a:	4428      	add	r0, r5
 400388c:	442f      	add	r7, r5
 400388e:	183d      	adds	r5, r7, r0
 4003890:	3910      	subs	r1, #16
 4003892:	4440      	add	r0, r8
 4003894:	4405      	add	r5, r0
 4003896:	290f      	cmp	r1, #15
 4003898:	442e      	add	r6, r5
 400389a:	f104 0410 	add.w	r4, r4, #16
 400389e:	d8bc      	bhi.n	400381a <iot_adler32+0x14e>
 40038a0:	f1a2 0110 	sub.w	r1, r2, #16
 40038a4:	0909      	lsrs	r1, r1, #4
 40038a6:	1c4d      	adds	r5, r1, #1
 40038a8:	f1a2 0411 	sub.w	r4, r2, #17
 40038ac:	0712      	lsls	r2, r2, #28
 40038ae:	eb03 1305 	add.w	r3, r3, r5, lsl #4
 40038b2:	eba4 1101 	sub.w	r1, r4, r1, lsl #4
 40038b6:	d007      	beq.n	40038c8 <iot_adler32+0x1fc>
 40038b8:	4419      	add	r1, r3
 40038ba:	3b01      	subs	r3, #1
 40038bc:	f813 2f01 	ldrb.w	r2, [r3, #1]!
 40038c0:	4410      	add	r0, r2
 40038c2:	428b      	cmp	r3, r1
 40038c4:	4406      	add	r6, r0
 40038c6:	d1f9      	bne.n	40038bc <iot_adler32+0x1f0>
 40038c8:	4b0b      	ldr	r3, [pc, #44]	; (40038f8 <iot_adler32+0x22c>)
 40038ca:	fba3 1200 	umull	r1, r2, r3, r0
 40038ce:	fba3 5306 	umull	r5, r3, r3, r6
 40038d2:	0bd2      	lsrs	r2, r2, #15
 40038d4:	0bdb      	lsrs	r3, r3, #15
 40038d6:	ebc2 3402 	rsb	r4, r2, r2, lsl #12
 40038da:	ebc3 3103 	rsb	r1, r3, r3, lsl #12
 40038de:	eb02 1204 	add.w	r2, r2, r4, lsl #4
 40038e2:	eb03 1301 	add.w	r3, r3, r1, lsl #4
 40038e6:	1a80      	subs	r0, r0, r2
 40038e8:	1af6      	subs	r6, r6, r3
 40038ea:	ea40 4006 	orr.w	r0, r0, r6, lsl #16
 40038ee:	e75a      	b.n	40037a6 <iot_adler32+0xda>
 40038f0:	2001      	movs	r0, #1
 40038f2:	e777      	b.n	40037e4 <iot_adler32+0x118>
 40038f4:	1e51      	subs	r1, r2, #1
 40038f6:	e7df      	b.n	40038b8 <iot_adler32+0x1ec>
 40038f8:	80078071 	andhi	r8, r7, r1, ror r0

040038fc <iot_hash>:
 40038fc:	460b      	mov	r3, r1
 40038fe:	b510      	push	{r4, lr}
 4003900:	4601      	mov	r1, r0
 4003902:	4614      	mov	r4, r2
 4003904:	2001      	movs	r0, #1
 4003906:	461a      	mov	r2, r3
 4003908:	f7ff fee0 	bl	40036cc <iot_adler32>
 400390c:	b104      	cbz	r4, 4003910 <iot_hash+0x14>
 400390e:	6020      	str	r0, [r4, #0]
 4003910:	bd10      	pop	{r4, pc}
 4003912:	bf00      	nop

04003914 <iot_hash_combine>:
 4003914:	b4f0      	push	{r4, r5, r6, r7}
 4003916:	4c1d      	ldr	r4, [pc, #116]	; (400398c <iot_hash_combine+0x78>)
 4003918:	fba4 5302 	umull	r5, r3, r4, r2
 400391c:	0bdb      	lsrs	r3, r3, #15
 400391e:	ebc3 3503 	rsb	r5, r3, r3, lsl #12
 4003922:	eb03 1305 	add.w	r3, r3, r5, lsl #4
 4003926:	1ad3      	subs	r3, r2, r3
 4003928:	b285      	uxth	r5, r0
 400392a:	fb05 f603 	mul.w	r6, r5, r3
 400392e:	fba4 7206 	umull	r7, r2, r4, r6
 4003932:	0bd2      	lsrs	r2, r2, #15
 4003934:	0c0f      	lsrs	r7, r1, #16
 4003936:	ebc2 3402 	rsb	r4, r2, r2, lsl #12
 400393a:	eb07 4010 	add.w	r0, r7, r0, lsr #16
 400393e:	eb02 1204 	add.w	r2, r2, r4, lsl #4
 4003942:	1ac3      	subs	r3, r0, r3
 4003944:	1ab6      	subs	r6, r6, r2
 4003946:	441e      	add	r6, r3
 4003948:	f506 437f 	add.w	r3, r6, #65280	; 0xff00
 400394c:	fa15 f581 	uxtah	r5, r5, r1
 4003950:	33f1      	adds	r3, #241	; 0xf1
 4003952:	b1c5      	cbz	r5, 4003986 <iot_hash_combine+0x72>
 4003954:	1e68      	subs	r0, r5, #1
 4003956:	f64f 72f0 	movw	r2, #65520	; 0xfff0
 400395a:	4290      	cmp	r0, r2
 400395c:	d902      	bls.n	4003964 <iot_hash_combine+0x50>
 400395e:	f5a5 407f 	sub.w	r0, r5, #65280	; 0xff00
 4003962:	38f2      	subs	r0, #242	; 0xf2
 4003964:	4a0a      	ldr	r2, [pc, #40]	; (4003990 <iot_hash_combine+0x7c>)
 4003966:	4293      	cmp	r3, r2
 4003968:	bf84      	itt	hi
 400396a:	f5a6 437f 	subhi.w	r3, r6, #65280	; 0xff00
 400396e:	3bf1      	subhi	r3, #241	; 0xf1
 4003970:	f64f 72f0 	movw	r2, #65520	; 0xfff0
 4003974:	4293      	cmp	r3, r2
 4003976:	bf84      	itt	hi
 4003978:	f5a3 437f 	subhi.w	r3, r3, #65280	; 0xff00
 400397c:	3bf1      	subhi	r3, #241	; 0xf1
 400397e:	ea40 4003 	orr.w	r0, r0, r3, lsl #16
 4003982:	bcf0      	pop	{r4, r5, r6, r7}
 4003984:	4770      	bx	lr
 4003986:	f64f 70f0 	movw	r0, #65520	; 0xfff0
 400398a:	e7eb      	b.n	4003964 <iot_hash_combine+0x50>
 400398c:	80078071 	andhi	r8, r7, r1, ror r0
 4003990:	0001ffe1 	andeq	pc, r1, r1, ror #31

04003994 <LzmaDec_TryDummy>:
 4003994:	e92d 0ff0 	stmdb	sp!, {r4, r5, r6, r7, r8, r9, sl, fp}
 4003998:	6883      	ldr	r3, [r0, #8]
 400399a:	f8d0 902c 	ldr.w	r9, [r0, #44]	; 0x2c
 400399e:	6b46      	ldr	r6, [r0, #52]	; 0x34
 40039a0:	f8d0 801c 	ldr.w	r8, [r0, #28]
 40039a4:	6907      	ldr	r7, [r0, #16]
 40039a6:	6a04      	ldr	r4, [r0, #32]
 40039a8:	2501      	movs	r5, #1
 40039aa:	409d      	lsls	r5, r3
 40039ac:	3d01      	subs	r5, #1
 40039ae:	ea05 0509 	and.w	r5, r5, r9
 40039b2:	eb05 1306 	add.w	r3, r5, r6, lsl #4
 40039b6:	f1b8 7f80 	cmp.w	r8, #16777216	; 0x1000000
 40039ba:	440a      	add	r2, r1
 40039bc:	f837 3013 	ldrh.w	r3, [r7, r3, lsl #1]
 40039c0:	d208      	bcs.n	40039d4 <LzmaDec_TryDummy+0x40>
 40039c2:	4291      	cmp	r1, r2
 40039c4:	d265      	bcs.n	4003a92 <LzmaDec_TryDummy+0xfe>
 40039c6:	f891 c000 	ldrb.w	ip, [r1]
 40039ca:	ea4f 2808 	mov.w	r8, r8, lsl #8
 40039ce:	ea4c 2404 	orr.w	r4, ip, r4, lsl #8
 40039d2:	3101      	adds	r1, #1
 40039d4:	ea4f 2cd8 	mov.w	ip, r8, lsr #11
 40039d8:	fb03 f30c 	mul.w	r3, r3, ip
 40039dc:	429c      	cmp	r4, r3
 40039de:	d22f      	bcs.n	4003a40 <LzmaDec_TryDummy+0xac>
 40039e0:	6b05      	ldr	r5, [r0, #48]	; 0x30
 40039e2:	f607 686c 	addw	r8, r7, #3692	; 0xe6c
 40039e6:	2d00      	cmp	r5, #0
 40039e8:	d157      	bne.n	4003a9a <LzmaDec_TryDummy+0x106>
 40039ea:	f1b9 0f00 	cmp.w	r9, #0
 40039ee:	d154      	bne.n	4003a9a <LzmaDec_TryDummy+0x106>
 40039f0:	2e06      	cmp	r6, #6
 40039f2:	d874      	bhi.n	4003ade <LzmaDec_TryDummy+0x14a>
 40039f4:	2501      	movs	r5, #1
 40039f6:	f1b3 7f80 	cmp.w	r3, #16777216	; 0x1000000
 40039fa:	f838 0015 	ldrh.w	r0, [r8, r5, lsl #1]
 40039fe:	d206      	bcs.n	4003a0e <LzmaDec_TryDummy+0x7a>
 4003a00:	4291      	cmp	r1, r2
 4003a02:	d246      	bcs.n	4003a92 <LzmaDec_TryDummy+0xfe>
 4003a04:	780e      	ldrb	r6, [r1, #0]
 4003a06:	021b      	lsls	r3, r3, #8
 4003a08:	ea46 2404 	orr.w	r4, r6, r4, lsl #8
 4003a0c:	3101      	adds	r1, #1
 4003a0e:	0ade      	lsrs	r6, r3, #11
 4003a10:	fb00 f606 	mul.w	r6, r0, r6
 4003a14:	42b4      	cmp	r4, r6
 4003a16:	ea4f 0545 	mov.w	r5, r5, lsl #1
 4003a1a:	bf29      	itett	cs
 4003a1c:	3501      	addcs	r5, #1
 4003a1e:	4633      	movcc	r3, r6
 4003a20:	ebc6 0303 	rsbcs	r3, r6, r3
 4003a24:	ebc6 0404 	rsbcs	r4, r6, r4
 4003a28:	2dff      	cmp	r5, #255	; 0xff
 4003a2a:	d9e4      	bls.n	40039f6 <LzmaDec_TryDummy+0x62>
 4003a2c:	2001      	movs	r0, #1
 4003a2e:	f1b3 7f80 	cmp.w	r3, #16777216	; 0x1000000
 4003a32:	d22f      	bcs.n	4003a94 <LzmaDec_TryDummy+0x100>
 4003a34:	4291      	cmp	r1, r2
 4003a36:	bf28      	it	cs
 4003a38:	2000      	movcs	r0, #0
 4003a3a:	e8bd 0ff0 	ldmia.w	sp!, {r4, r5, r6, r7, r8, r9, sl, fp}
 4003a3e:	4770      	bx	lr
 4003a40:	f106 00c0 	add.w	r0, r6, #192	; 0xc0
 4003a44:	ebc3 0808 	rsb	r8, r3, r8
 4003a48:	1ae4      	subs	r4, r4, r3
 4003a4a:	4603      	mov	r3, r0
 4003a4c:	f1b8 7f80 	cmp.w	r8, #16777216	; 0x1000000
 4003a50:	ea4f 0040 	mov.w	r0, r0, lsl #1
 4003a54:	f837 3013 	ldrh.w	r3, [r7, r3, lsl #1]
 4003a58:	d208      	bcs.n	4003a6c <LzmaDec_TryDummy+0xd8>
 4003a5a:	4291      	cmp	r1, r2
 4003a5c:	d219      	bcs.n	4003a92 <LzmaDec_TryDummy+0xfe>
 4003a5e:	f891 c000 	ldrb.w	ip, [r1]
 4003a62:	ea4f 2808 	mov.w	r8, r8, lsl #8
 4003a66:	ea4c 2404 	orr.w	r4, ip, r4, lsl #8
 4003a6a:	3101      	adds	r1, #1
 4003a6c:	ea4f 2ad8 	mov.w	sl, r8, lsr #11
 4003a70:	fb03 fa0a 	mul.w	sl, r3, sl
 4003a74:	4554      	cmp	r4, sl
 4003a76:	d369      	bcc.n	4003b4c <LzmaDec_TryDummy+0x1b8>
 4003a78:	4438      	add	r0, r7
 4003a7a:	ebca 0808 	rsb	r8, sl, r8
 4003a7e:	f1b8 7f80 	cmp.w	r8, #16777216	; 0x1000000
 4003a82:	ebca 0404 	rsb	r4, sl, r4
 4003a86:	8b03      	ldrh	r3, [r0, #24]
 4003a88:	f080 8115 	bcs.w	4003cb6 <LzmaDec_TryDummy+0x322>
 4003a8c:	4291      	cmp	r1, r2
 4003a8e:	f0c0 810b 	bcc.w	4003ca8 <LzmaDec_TryDummy+0x314>
 4003a92:	2000      	movs	r0, #0
 4003a94:	e8bd 0ff0 	ldmia.w	sp!, {r4, r5, r6, r7, r8, r9, sl, fp}
 4003a98:	4770      	bx	lr
 4003a9a:	6845      	ldr	r5, [r0, #4]
 4003a9c:	6807      	ldr	r7, [r0, #0]
 4003a9e:	f8d0 c024 	ldr.w	ip, [r0, #36]	; 0x24
 4003aa2:	f8d0 a014 	ldr.w	sl, [r0, #20]
 4003aa6:	f04f 0b01 	mov.w	fp, #1
 4003aaa:	fa0b f505 	lsl.w	r5, fp, r5
 4003aae:	3d01      	subs	r5, #1
 4003ab0:	ea05 0909 	and.w	r9, r5, r9
 4003ab4:	fa09 fb07 	lsl.w	fp, r9, r7
 4003ab8:	f1bc 0f00 	cmp.w	ip, #0
 4003abc:	f000 80f1 	beq.w	4003ca2 <LzmaDec_TryDummy+0x30e>
 4003ac0:	f10c 35ff 	add.w	r5, ip, #4294967295
 4003ac4:	f81a 9005 	ldrb.w	r9, [sl, r5]
 4003ac8:	f1c7 0708 	rsb	r7, r7, #8
 4003acc:	fa49 f907 	asr.w	r9, r9, r7
 4003ad0:	44d9      	add	r9, fp
 4003ad2:	eb09 0949 	add.w	r9, r9, r9, lsl #1
 4003ad6:	2e06      	cmp	r6, #6
 4003ad8:	eb08 2849 	add.w	r8, r8, r9, lsl #9
 4003adc:	d98a      	bls.n	40039f4 <LzmaDec_TryDummy+0x60>
 4003ade:	6a46      	ldr	r6, [r0, #36]	; 0x24
 4003ae0:	6b85      	ldr	r5, [r0, #56]	; 0x38
 4003ae2:	f8d0 c014 	ldr.w	ip, [r0, #20]
 4003ae6:	42ae      	cmp	r6, r5
 4003ae8:	bf34      	ite	cc
 4003aea:	6a80      	ldrcc	r0, [r0, #40]	; 0x28
 4003aec:	2000      	movcs	r0, #0
 4003aee:	1b77      	subs	r7, r6, r5
 4003af0:	4460      	add	r0, ip
 4003af2:	2501      	movs	r5, #1
 4003af4:	f810 c007 	ldrb.w	ip, [r0, r7]
 4003af8:	f44f 7680 	mov.w	r6, #256	; 0x100
 4003afc:	e005      	b.n	4003b0a <LzmaDec_TryDummy+0x176>
 4003afe:	006d      	lsls	r5, r5, #1
 4003b00:	ea26 0600 	bic.w	r6, r6, r0
 4003b04:	463b      	mov	r3, r7
 4003b06:	2dff      	cmp	r5, #255	; 0xff
 4003b08:	d890      	bhi.n	4003a2c <LzmaDec_TryDummy+0x98>
 4003b0a:	ea4f 0c4c 	mov.w	ip, ip, lsl #1
 4003b0e:	ea06 000c 	and.w	r0, r6, ip
 4003b12:	1977      	adds	r7, r6, r5
 4003b14:	4407      	add	r7, r0
 4003b16:	f1b3 7f80 	cmp.w	r3, #16777216	; 0x1000000
 4003b1a:	ea4f 0945 	mov.w	r9, r5, lsl #1
 4003b1e:	f838 7017 	ldrh.w	r7, [r8, r7, lsl #1]
 4003b22:	d207      	bcs.n	4003b34 <LzmaDec_TryDummy+0x1a0>
 4003b24:	4291      	cmp	r1, r2
 4003b26:	d2b4      	bcs.n	4003a92 <LzmaDec_TryDummy+0xfe>
 4003b28:	f891 a000 	ldrb.w	sl, [r1]
 4003b2c:	021b      	lsls	r3, r3, #8
 4003b2e:	ea4a 2404 	orr.w	r4, sl, r4, lsl #8
 4003b32:	3101      	adds	r1, #1
 4003b34:	ea4f 2ad3 	mov.w	sl, r3, lsr #11
 4003b38:	fb07 f70a 	mul.w	r7, r7, sl
 4003b3c:	42bc      	cmp	r4, r7
 4003b3e:	d3de      	bcc.n	4003afe <LzmaDec_TryDummy+0x16a>
 4003b40:	1bdb      	subs	r3, r3, r7
 4003b42:	1be4      	subs	r4, r4, r7
 4003b44:	f109 0501 	add.w	r5, r9, #1
 4003b48:	4006      	ands	r6, r0
 4003b4a:	e7dc      	b.n	4003b06 <LzmaDec_TryDummy+0x172>
 4003b4c:	f207 6c64 	addw	ip, r7, #1636	; 0x664
 4003b50:	2002      	movs	r0, #2
 4003b52:	f04f 0900 	mov.w	r9, #0
 4003b56:	f1ba 7f80 	cmp.w	sl, #16777216	; 0x1000000
 4003b5a:	f8bc 3000 	ldrh.w	r3, [ip]
 4003b5e:	d207      	bcs.n	4003b70 <LzmaDec_TryDummy+0x1dc>
 4003b60:	4291      	cmp	r1, r2
 4003b62:	d296      	bcs.n	4003a92 <LzmaDec_TryDummy+0xfe>
 4003b64:	780e      	ldrb	r6, [r1, #0]
 4003b66:	ea4f 2a0a 	mov.w	sl, sl, lsl #8
 4003b6a:	ea46 2404 	orr.w	r4, r6, r4, lsl #8
 4003b6e:	3101      	adds	r1, #1
 4003b70:	ea4f 26da 	mov.w	r6, sl, lsr #11
 4003b74:	fb03 f306 	mul.w	r3, r3, r6
 4003b78:	429c      	cmp	r4, r3
 4003b7a:	f080 80bf 	bcs.w	4003cfc <LzmaDec_TryDummy+0x368>
 4003b7e:	eb0c 1c05 	add.w	ip, ip, r5, lsl #4
 4003b82:	f10c 0c04 	add.w	ip, ip, #4
 4003b86:	f04f 0a00 	mov.w	sl, #0
 4003b8a:	f04f 0808 	mov.w	r8, #8
 4003b8e:	2501      	movs	r5, #1
 4003b90:	f1b3 7f80 	cmp.w	r3, #16777216	; 0x1000000
 4003b94:	f83c 6015 	ldrh.w	r6, [ip, r5, lsl #1]
 4003b98:	d208      	bcs.n	4003bac <LzmaDec_TryDummy+0x218>
 4003b9a:	4291      	cmp	r1, r2
 4003b9c:	f4bf af79 	bcs.w	4003a92 <LzmaDec_TryDummy+0xfe>
 4003ba0:	f891 b000 	ldrb.w	fp, [r1]
 4003ba4:	021b      	lsls	r3, r3, #8
 4003ba6:	ea4b 2404 	orr.w	r4, fp, r4, lsl #8
 4003baa:	3101      	adds	r1, #1
